
Lab2V2.elf:     file format elf32-littlearm

Sections:
Idx Name          Size      VMA       LMA       File off  Algn
  0 .isr_vector   000001f0  08000000  08000000  00001000  2**0
                  CONTENTS, ALLOC, LOAD, READONLY, DATA
  1 .text         00002ce0  080001f0  080001f0  000011f0  2**2
                  CONTENTS, ALLOC, LOAD, READONLY, CODE
  2 .rodata       00000274  08002ed0  08002ed0  00003ed0  2**2
                  CONTENTS, ALLOC, LOAD, READONLY, DATA
  3 .ARM.extab    00000000  08003144  08003144  000051a8  2**0
                  CONTENTS, READONLY
  4 .ARM          00000000  08003144  08003144  000051a8  2**0
                  CONTENTS, READONLY
  5 .preinit_array 00000000  08003144  08003144  000051a8  2**0
                  CONTENTS, ALLOC, LOAD, DATA
  6 .init_array   00000004  08003144  08003144  00004144  2**2
                  CONTENTS, ALLOC, LOAD, READONLY, DATA
  7 .fini_array   00000004  08003148  08003148  00004148  2**2
                  CONTENTS, ALLOC, LOAD, READONLY, DATA
  8 .data         000001a8  20000000  0800314c  00005000  2**2
                  CONTENTS, ALLOC, LOAD, DATA
  9 .bss          0000027c  200001a8  080032f4  000051a8  2**2
                  ALLOC
 10 ._user_heap_stack 00000604  20000424  080032f4  00005424  2**0
                  ALLOC
 11 .ARM.attributes 00000036  00000000  00000000  000051a8  2**0
                  CONTENTS, READONLY
 12 .debug_info   00003bfe  00000000  00000000  000051de  2**0
                  CONTENTS, READONLY, DEBUGGING, OCTETS
 13 .debug_abbrev 0000105c  00000000  00000000  00008ddc  2**0
                  CONTENTS, READONLY, DEBUGGING, OCTETS
 14 .debug_aranges 00000350  00000000  00000000  00009e38  2**3
                  CONTENTS, READONLY, DEBUGGING, OCTETS
 15 .debug_rnglists 0000024f  00000000  00000000  0000a188  2**0
                  CONTENTS, READONLY, DEBUGGING, OCTETS
 16 .debug_macro  0001fcf2  00000000  00000000  0000a3d7  2**0
                  CONTENTS, READONLY, DEBUGGING, OCTETS
 17 .debug_line   00004c5a  00000000  00000000  0002a0c9  2**0
                  CONTENTS, READONLY, DEBUGGING, OCTETS
 18 .debug_str    000b16ab  00000000  00000000  0002ed23  2**0
                  CONTENTS, READONLY, DEBUGGING, OCTETS
 19 .comment      00000043  00000000  00000000  000e03ce  2**0
                  CONTENTS, READONLY
 20 .debug_frame  00001664  00000000  00000000  000e0414  2**2
                  CONTENTS, READONLY, DEBUGGING, OCTETS
 21 .debug_line_str 0000003c  00000000  00000000  000e1a78  2**0
                  CONTENTS, READONLY, DEBUGGING, OCTETS

Disassembly of section .text:

080001f0 <__do_global_dtors_aux>:
 80001f0:	b510      	push	{r4, lr}
 80001f2:	4c05      	ldr	r4, [pc, #20]	@ (8000208 <__do_global_dtors_aux+0x18>)
 80001f4:	7823      	ldrb	r3, [r4, #0]
 80001f6:	b933      	cbnz	r3, 8000206 <__do_global_dtors_aux+0x16>
 80001f8:	4b04      	ldr	r3, [pc, #16]	@ (800020c <__do_global_dtors_aux+0x1c>)
 80001fa:	b113      	cbz	r3, 8000202 <__do_global_dtors_aux+0x12>
 80001fc:	4804      	ldr	r0, [pc, #16]	@ (8000210 <__do_global_dtors_aux+0x20>)
 80001fe:	f3af 8000 	nop.w
 8000202:	2301      	movs	r3, #1
 8000204:	7023      	strb	r3, [r4, #0]
 8000206:	bd10      	pop	{r4, pc}
 8000208:	200001a8 	.word	0x200001a8
 800020c:	00000000 	.word	0x00000000
 8000210:	08002eb8 	.word	0x08002eb8

08000214 <frame_dummy>:
 8000214:	b508      	push	{r3, lr}
 8000216:	4b03      	ldr	r3, [pc, #12]	@ (8000224 <frame_dummy+0x10>)
 8000218:	b11b      	cbz	r3, 8000222 <frame_dummy+0xe>
 800021a:	4903      	ldr	r1, [pc, #12]	@ (8000228 <frame_dummy+0x14>)
 800021c:	4803      	ldr	r0, [pc, #12]	@ (800022c <frame_dummy+0x18>)
 800021e:	f3af 8000 	nop.w
 8000222:	bd08      	pop	{r3, pc}
 8000224:	00000000 	.word	0x00000000
 8000228:	200001ac 	.word	0x200001ac
 800022c:	08002eb8 	.word	0x08002eb8

08000230 <Init_Alarm>:
static void CallbackMotionDetect();
static void CallbackButtonPress();
static void CallbackButtonRelease();

// Initialization code
void Init_Alarm (void) {
 8000230:	b580      	push	{r7, lr}
 8000232:	af00      	add	r7, sp, #0
	// GPIO ENABLES
	GPIO_Enable(BLUE_LED);
 8000234:	4b37      	ldr	r3, [pc, #220]	@ (8000314 <Init_Alarm+0xe4>)
 8000236:	e893 0003 	ldmia.w	r3, {r0, r1}
 800023a:	f000 fec9 	bl	8000fd0 <GPIO_Enable>
	GPIO_Enable(RED_LED);
 800023e:	4b36      	ldr	r3, [pc, #216]	@ (8000318 <Init_Alarm+0xe8>)
 8000240:	e893 0003 	ldmia.w	r3, {r0, r1}
 8000244:	f000 fec4 	bl	8000fd0 <GPIO_Enable>
	GPIO_Enable(GREEN_LED);
 8000248:	4b34      	ldr	r3, [pc, #208]	@ (800031c <Init_Alarm+0xec>)
 800024a:	e893 0003 	ldmia.w	r3, {r0, r1}
 800024e:	f000 febf 	bl	8000fd0 <GPIO_Enable>
	GPIO_Enable(ESTOP_BUTTON);
 8000252:	4b33      	ldr	r3, [pc, #204]	@ (8000320 <Init_Alarm+0xf0>)
 8000254:	e893 0003 	ldmia.w	r3, {r0, r1}
 8000258:	f000 feba 	bl	8000fd0 <GPIO_Enable>
	GPIO_Enable(MOTION);
 800025c:	4b31      	ldr	r3, [pc, #196]	@ (8000324 <Init_Alarm+0xf4>)
 800025e:	e893 0003 	ldmia.w	r3, {r0, r1}
 8000262:	f000 feb5 	bl	8000fd0 <GPIO_Enable>
	GPIO_Enable(BUZZ);
 8000266:	4b30      	ldr	r3, [pc, #192]	@ (8000328 <Init_Alarm+0xf8>)
 8000268:	e893 0003 	ldmia.w	r3, {r0, r1}
 800026c:	f000 feb0 	bl	8000fd0 <GPIO_Enable>

	//GPIO MODES
	GPIO_Mode(BLUE_LED, OUTPUT);
 8000270:	4b28      	ldr	r3, [pc, #160]	@ (8000314 <Init_Alarm+0xe4>)
 8000272:	2201      	movs	r2, #1
 8000274:	e893 0003 	ldmia.w	r3, {r0, r1}
 8000278:	f000 fede 	bl	8001038 <GPIO_Mode>
	GPIO_Mode(RED_LED, OUTPUT);
 800027c:	4b26      	ldr	r3, [pc, #152]	@ (8000318 <Init_Alarm+0xe8>)
 800027e:	2201      	movs	r2, #1
 8000280:	e893 0003 	ldmia.w	r3, {r0, r1}
 8000284:	f000 fed8 	bl	8001038 <GPIO_Mode>
	GPIO_Mode(GREEN_LED, OUTPUT);
 8000288:	4b24      	ldr	r3, [pc, #144]	@ (800031c <Init_Alarm+0xec>)
 800028a:	2201      	movs	r2, #1
 800028c:	e893 0003 	ldmia.w	r3, {r0, r1}
 8000290:	f000 fed2 	bl	8001038 <GPIO_Mode>
	GPIO_Mode(ESTOP_BUTTON, INPUT);
 8000294:	4b22      	ldr	r3, [pc, #136]	@ (8000320 <Init_Alarm+0xf0>)
 8000296:	2200      	movs	r2, #0
 8000298:	e893 0003 	ldmia.w	r3, {r0, r1}
 800029c:	f000 fecc 	bl	8001038 <GPIO_Mode>
	GPIO_Mode(MOTION, INPUT);
 80002a0:	4b20      	ldr	r3, [pc, #128]	@ (8000324 <Init_Alarm+0xf4>)
 80002a2:	2200      	movs	r2, #0
 80002a4:	e893 0003 	ldmia.w	r3, {r0, r1}
 80002a8:	f000 fec6 	bl	8001038 <GPIO_Mode>
	GPIO_Mode(BUZZ, OUTPUT);
 80002ac:	4b1e      	ldr	r3, [pc, #120]	@ (8000328 <Init_Alarm+0xf8>)
 80002ae:	2201      	movs	r2, #1
 80002b0:	e893 0003 	ldmia.w	r3, {r0, r1}
 80002b4:	f000 fec0 	bl	8001038 <GPIO_Mode>

	//CALLBACKS
	GPIO_Callback(ESTOP_BUTTON, CallbackButtonPress, RISE);
 80002b8:	4919      	ldr	r1, [pc, #100]	@ (8000320 <Init_Alarm+0xf0>)
 80002ba:	2301      	movs	r3, #1
 80002bc:	4a1b      	ldr	r2, [pc, #108]	@ (800032c <Init_Alarm+0xfc>)
 80002be:	c903      	ldmia	r1, {r0, r1}
 80002c0:	f000 ffee 	bl	80012a0 <GPIO_Callback>
	GPIO_Callback(ESTOP_BUTTON, CallbackButtonRelease, FALL);
 80002c4:	4916      	ldr	r1, [pc, #88]	@ (8000320 <Init_Alarm+0xf0>)
 80002c6:	2300      	movs	r3, #0
 80002c8:	4a19      	ldr	r2, [pc, #100]	@ (8000330 <Init_Alarm+0x100>)
 80002ca:	c903      	ldmia	r1, {r0, r1}
 80002cc:	f000 ffe8 	bl	80012a0 <GPIO_Callback>
	GPIO_Callback(MOTION, CallbackMotionDetect, RISE);
 80002d0:	4914      	ldr	r1, [pc, #80]	@ (8000324 <Init_Alarm+0xf4>)
 80002d2:	2301      	movs	r3, #1
 80002d4:	4a17      	ldr	r2, [pc, #92]	@ (8000334 <Init_Alarm+0x104>)
 80002d6:	c903      	ldmia	r1, {r0, r1}
 80002d8:	f000 ffe2 	bl	80012a0 <GPIO_Callback>

	//ENABLE DISPLAY
	DisplayEnable();
 80002dc:	f000 f9e6 	bl	80006ac <DisplayEnable>
	DisplayColor(WHITE);
 80002e0:	f06f 407f 	mvn.w	r0, #4278190080	@ 0xff000000
 80002e4:	f000 fa32 	bl	800074c <DisplayColor>
	DisplayPrint(0, "DISARMED");
 80002e8:	4913      	ldr	r1, [pc, #76]	@ (8000338 <Init_Alarm+0x108>)
 80002ea:	2000      	movs	r0, #0
 80002ec:	f000 f9f2 	bl	80006d4 <DisplayPrint>
		GPIO_Toggle(BLUE_LED);

		printf("all should be on\n");
	}

	currLoopTime = TimeNow();
 80002f0:	f001 fb42 	bl	8001978 <TimeNow>
 80002f4:	4603      	mov	r3, r0
 80002f6:	4a11      	ldr	r2, [pc, #68]	@ (800033c <Init_Alarm+0x10c>)
 80002f8:	6013      	str	r3, [r2, #0]

	state = DISARMED;
 80002fa:	4b11      	ldr	r3, [pc, #68]	@ (8000340 <Init_Alarm+0x110>)
 80002fc:	2200      	movs	r2, #0
 80002fe:	701a      	strb	r2, [r3, #0]
	printf("DISARMED at time %u ALARM INITIALIZED\n", TimeNow());
 8000300:	f001 fb3a 	bl	8001978 <TimeNow>
 8000304:	4603      	mov	r3, r0
 8000306:	4619      	mov	r1, r3
 8000308:	480e      	ldr	r0, [pc, #56]	@ (8000344 <Init_Alarm+0x114>)
 800030a:	f001 fc85 	bl	8001c18 <iprintf>

}
 800030e:	bf00      	nop
 8000310:	bd80      	pop	{r7, pc}
 8000312:	bf00      	nop
 8000314:	0800303c 	.word	0x0800303c
 8000318:	0800302c 	.word	0x0800302c
 800031c:	08003034 	.word	0x08003034
 8000320:	08003044 	.word	0x08003044
 8000324:	0800304c 	.word	0x0800304c
 8000328:	08003054 	.word	0x08003054
 800032c:	080005f5 	.word	0x080005f5
 8000330:	08000615 	.word	0x08000615
 8000334:	080005dd 	.word	0x080005dd
 8000338:	08002ed0 	.word	0x08002ed0
 800033c:	200001c8 	.word	0x200001c8
 8000340:	200001c4 	.word	0x200001c4
 8000344:	08002edc 	.word	0x08002edc

08000348 <Task_Alarm>:

// Task code (state machine)
void Task_Alarm (void) {
 8000348:	b580      	push	{r7, lr}
 800034a:	b082      	sub	sp, #8
 800034c:	af00      	add	r7, sp, #0

	if (buttonPressed == 1 && buttonReleased == 0 && longPressDetected == 0) {
 800034e:	4b91      	ldr	r3, [pc, #580]	@ (8000594 <Task_Alarm+0x24c>)
 8000350:	681b      	ldr	r3, [r3, #0]
 8000352:	2b01      	cmp	r3, #1
 8000354:	d11e      	bne.n	8000394 <Task_Alarm+0x4c>
 8000356:	4b90      	ldr	r3, [pc, #576]	@ (8000598 <Task_Alarm+0x250>)
 8000358:	681b      	ldr	r3, [r3, #0]
 800035a:	2b00      	cmp	r3, #0
 800035c:	d11a      	bne.n	8000394 <Task_Alarm+0x4c>
 800035e:	4b8f      	ldr	r3, [pc, #572]	@ (800059c <Task_Alarm+0x254>)
 8000360:	681b      	ldr	r3, [r3, #0]
 8000362:	2b00      	cmp	r3, #0
 8000364:	d116      	bne.n	8000394 <Task_Alarm+0x4c>
		if (TimeNow() - buttonPressedStartTime > 3000) { //check for 3000 ms
 8000366:	f001 fb07 	bl	8001978 <TimeNow>
 800036a:	4602      	mov	r2, r0
 800036c:	4b8c      	ldr	r3, [pc, #560]	@ (80005a0 <Task_Alarm+0x258>)
 800036e:	681b      	ldr	r3, [r3, #0]
 8000370:	1ad3      	subs	r3, r2, r3
 8000372:	f640 32b8 	movw	r2, #3000	@ 0xbb8
 8000376:	4293      	cmp	r3, r2
 8000378:	d90c      	bls.n	8000394 <Task_Alarm+0x4c>
			if (DEBUG) {printf("3s Button Detected\n");};
			state = DISARMED;
 800037a:	4b8a      	ldr	r3, [pc, #552]	@ (80005a4 <Task_Alarm+0x25c>)
 800037c:	2200      	movs	r2, #0
 800037e:	701a      	strb	r2, [r3, #0]
			printf("DISARMED at time %u BUTTON HELD\n", TimeNow());
 8000380:	f001 fafa 	bl	8001978 <TimeNow>
 8000384:	4603      	mov	r3, r0
 8000386:	4619      	mov	r1, r3
 8000388:	4887      	ldr	r0, [pc, #540]	@ (80005a8 <Task_Alarm+0x260>)
 800038a:	f001 fc45 	bl	8001c18 <iprintf>
			longPressDetected = 1;
 800038e:	4b83      	ldr	r3, [pc, #524]	@ (800059c <Task_Alarm+0x254>)
 8000390:	2201      	movs	r2, #1
 8000392:	601a      	str	r2, [r3, #0]
		}
	}

	if (buttonReleased == 1 && buttonPressed == 0) { //for brief button press
 8000394:	4b80      	ldr	r3, [pc, #512]	@ (8000598 <Task_Alarm+0x250>)
 8000396:	681b      	ldr	r3, [r3, #0]
 8000398:	2b01      	cmp	r3, #1
 800039a:	d11b      	bne.n	80003d4 <Task_Alarm+0x8c>
 800039c:	4b7d      	ldr	r3, [pc, #500]	@ (8000594 <Task_Alarm+0x24c>)
 800039e:	681b      	ldr	r3, [r3, #0]
 80003a0:	2b00      	cmp	r3, #0
 80003a2:	d117      	bne.n	80003d4 <Task_Alarm+0x8c>
		if (longPressDetected == 1) {
 80003a4:	4b7d      	ldr	r3, [pc, #500]	@ (800059c <Task_Alarm+0x254>)
 80003a6:	681b      	ldr	r3, [r3, #0]
 80003a8:	2b01      	cmp	r3, #1
 80003aa:	d103      	bne.n	80003b4 <Task_Alarm+0x6c>
			longPressDetected = 0;
 80003ac:	4b7b      	ldr	r3, [pc, #492]	@ (800059c <Task_Alarm+0x254>)
 80003ae:	2200      	movs	r2, #0
 80003b0:	601a      	str	r2, [r3, #0]
 80003b2:	e00c      	b.n	80003ce <Task_Alarm+0x86>
		}
		else {
			if (DEBUG) {printf("brief Button Detected\n");};
			motionDetected = 0;
 80003b4:	4b7d      	ldr	r3, [pc, #500]	@ (80005ac <Task_Alarm+0x264>)
 80003b6:	2200      	movs	r2, #0
 80003b8:	601a      	str	r2, [r3, #0]
			state = ARMED;
 80003ba:	4b7a      	ldr	r3, [pc, #488]	@ (80005a4 <Task_Alarm+0x25c>)
 80003bc:	2201      	movs	r2, #1
 80003be:	701a      	strb	r2, [r3, #0]
			printf("ARMED at time %u BUTTON PRESS\n", TimeNow());
 80003c0:	f001 fada 	bl	8001978 <TimeNow>
 80003c4:	4603      	mov	r3, r0
 80003c6:	4619      	mov	r1, r3
 80003c8:	4879      	ldr	r0, [pc, #484]	@ (80005b0 <Task_Alarm+0x268>)
 80003ca:	f001 fc25 	bl	8001c18 <iprintf>

		}
		buttonReleased = 0; //no longer need to process button released event
 80003ce:	4b72      	ldr	r3, [pc, #456]	@ (8000598 <Task_Alarm+0x250>)
 80003d0:	2200      	movs	r2, #0
 80003d2:	601a      	str	r2, [r3, #0]
	}

	if (motionDetected == 1) {
 80003d4:	4b75      	ldr	r3, [pc, #468]	@ (80005ac <Task_Alarm+0x264>)
 80003d6:	681b      	ldr	r3, [r3, #0]
 80003d8:	2b01      	cmp	r3, #1
 80003da:	d110      	bne.n	80003fe <Task_Alarm+0xb6>
		if (state == ARMED) {
 80003dc:	4b71      	ldr	r3, [pc, #452]	@ (80005a4 <Task_Alarm+0x25c>)
 80003de:	781b      	ldrb	r3, [r3, #0]
 80003e0:	2b01      	cmp	r3, #1
 80003e2:	d10c      	bne.n	80003fe <Task_Alarm+0xb6>
			state = TRIGGERED;
 80003e4:	4b6f      	ldr	r3, [pc, #444]	@ (80005a4 <Task_Alarm+0x25c>)
 80003e6:	2202      	movs	r2, #2
 80003e8:	701a      	strb	r2, [r3, #0]
			printf("TRIGGERED at time %u MOTION DETECTED\n", TimeNow());
 80003ea:	f001 fac5 	bl	8001978 <TimeNow>
 80003ee:	4603      	mov	r3, r0
 80003f0:	4619      	mov	r1, r3
 80003f2:	4870      	ldr	r0, [pc, #448]	@ (80005b4 <Task_Alarm+0x26c>)
 80003f4:	f001 fc10 	bl	8001c18 <iprintf>
			motionDetected = 0;
 80003f8:	4b6c      	ldr	r3, [pc, #432]	@ (80005ac <Task_Alarm+0x264>)
 80003fa:	2200      	movs	r2, #0
 80003fc:	601a      	str	r2, [r3, #0]
		}
	}

	switch (state) {
 80003fe:	4b69      	ldr	r3, [pc, #420]	@ (80005a4 <Task_Alarm+0x25c>)
 8000400:	781b      	ldrb	r3, [r3, #0]
 8000402:	2b02      	cmp	r3, #2
 8000404:	d078      	beq.n	80004f8 <Task_Alarm+0x1b0>
 8000406:	2b02      	cmp	r3, #2
 8000408:	f300 80c0 	bgt.w	800058c <Task_Alarm+0x244>
 800040c:	2b00      	cmp	r3, #0
 800040e:	d002      	beq.n	8000416 <Task_Alarm+0xce>
 8000410:	2b01      	cmp	r3, #1
 8000412:	d024      	beq.n	800045e <Task_Alarm+0x116>
				currLoopTime = TimeNow();
				//if (DEBUG) {printf("BUZZ LOW\n");};
			}
			break;
		}
}
 8000414:	e0ba      	b.n	800058c <Task_Alarm+0x244>
			DisplayPrint(0, "DISARMED");
 8000416:	4968      	ldr	r1, [pc, #416]	@ (80005b8 <Task_Alarm+0x270>)
 8000418:	2000      	movs	r0, #0
 800041a:	f000 f95b 	bl	80006d4 <DisplayPrint>
			DisplayColor(WHITE);
 800041e:	f06f 407f 	mvn.w	r0, #4278190080	@ 0xff000000
 8000422:	f000 f993 	bl	800074c <DisplayColor>
			motionDetected = 0;
 8000426:	4b61      	ldr	r3, [pc, #388]	@ (80005ac <Task_Alarm+0x264>)
 8000428:	2200      	movs	r2, #0
 800042a:	601a      	str	r2, [r3, #0]
			GPIO_Output(RED_LED,LOW);
 800042c:	4b63      	ldr	r3, [pc, #396]	@ (80005bc <Task_Alarm+0x274>)
 800042e:	2200      	movs	r2, #0
 8000430:	e893 0003 	ldmia.w	r3, {r0, r1}
 8000434:	f000 feb0 	bl	8001198 <GPIO_Output>
			GPIO_Output(GREEN_LED,LOW);
 8000438:	4b61      	ldr	r3, [pc, #388]	@ (80005c0 <Task_Alarm+0x278>)
 800043a:	2200      	movs	r2, #0
 800043c:	e893 0003 	ldmia.w	r3, {r0, r1}
 8000440:	f000 feaa 	bl	8001198 <GPIO_Output>
			GPIO_Output(BLUE_LED,LOW);
 8000444:	4b5f      	ldr	r3, [pc, #380]	@ (80005c4 <Task_Alarm+0x27c>)
 8000446:	2200      	movs	r2, #0
 8000448:	e893 0003 	ldmia.w	r3, {r0, r1}
 800044c:	f000 fea4 	bl	8001198 <GPIO_Output>
			GPIO_Output(BUZZ, LOW);
 8000450:	4b5d      	ldr	r3, [pc, #372]	@ (80005c8 <Task_Alarm+0x280>)
 8000452:	2200      	movs	r2, #0
 8000454:	e893 0003 	ldmia.w	r3, {r0, r1}
 8000458:	f000 fe9e 	bl	8001198 <GPIO_Output>
			break;
 800045c:	e096      	b.n	800058c <Task_Alarm+0x244>
			DisplayPrint(0, "ARMED");
 800045e:	495b      	ldr	r1, [pc, #364]	@ (80005cc <Task_Alarm+0x284>)
 8000460:	2000      	movs	r0, #0
 8000462:	f000 f937 	bl	80006d4 <DisplayPrint>
			DisplayColor(YELLOW);
 8000466:	485a      	ldr	r0, [pc, #360]	@ (80005d0 <Task_Alarm+0x288>)
 8000468:	f000 f970 	bl	800074c <DisplayColor>
			GPIO_Output(BUZZ, LOW);
 800046c:	4b56      	ldr	r3, [pc, #344]	@ (80005c8 <Task_Alarm+0x280>)
 800046e:	2200      	movs	r2, #0
 8000470:	e893 0003 	ldmia.w	r3, {r0, r1}
 8000474:	f000 fe90 	bl	8001198 <GPIO_Output>
			if ((TimeNow() - currLoopTime) > 1000 && (TimeNow() - currLoopTime) < 2000) {
 8000478:	f001 fa7e 	bl	8001978 <TimeNow>
 800047c:	4602      	mov	r2, r0
 800047e:	4b55      	ldr	r3, [pc, #340]	@ (80005d4 <Task_Alarm+0x28c>)
 8000480:	681b      	ldr	r3, [r3, #0]
 8000482:	1ad3      	subs	r3, r2, r3
 8000484:	f5b3 7f7a 	cmp.w	r3, #1000	@ 0x3e8
 8000488:	d91b      	bls.n	80004c2 <Task_Alarm+0x17a>
 800048a:	f001 fa75 	bl	8001978 <TimeNow>
 800048e:	4602      	mov	r2, r0
 8000490:	4b50      	ldr	r3, [pc, #320]	@ (80005d4 <Task_Alarm+0x28c>)
 8000492:	681b      	ldr	r3, [r3, #0]
 8000494:	1ad3      	subs	r3, r2, r3
 8000496:	f5b3 6ffa 	cmp.w	r3, #2000	@ 0x7d0
 800049a:	d212      	bcs.n	80004c2 <Task_Alarm+0x17a>
				GPIO_Output(RED_LED,LOW);
 800049c:	4b47      	ldr	r3, [pc, #284]	@ (80005bc <Task_Alarm+0x274>)
 800049e:	2200      	movs	r2, #0
 80004a0:	e893 0003 	ldmia.w	r3, {r0, r1}
 80004a4:	f000 fe78 	bl	8001198 <GPIO_Output>
				GPIO_Output(GREEN_LED,HIGH);
 80004a8:	4b45      	ldr	r3, [pc, #276]	@ (80005c0 <Task_Alarm+0x278>)
 80004aa:	2201      	movs	r2, #1
 80004ac:	e893 0003 	ldmia.w	r3, {r0, r1}
 80004b0:	f000 fe72 	bl	8001198 <GPIO_Output>
				GPIO_Output(BLUE_LED,LOW);
 80004b4:	4b43      	ldr	r3, [pc, #268]	@ (80005c4 <Task_Alarm+0x27c>)
 80004b6:	2200      	movs	r2, #0
 80004b8:	e893 0003 	ldmia.w	r3, {r0, r1}
 80004bc:	f000 fe6c 	bl	8001198 <GPIO_Output>
			break;
 80004c0:	e061      	b.n	8000586 <Task_Alarm+0x23e>
			else if ((TimeNow() - currLoopTime) >= 2000) {
 80004c2:	f001 fa59 	bl	8001978 <TimeNow>
 80004c6:	4602      	mov	r2, r0
 80004c8:	4b42      	ldr	r3, [pc, #264]	@ (80005d4 <Task_Alarm+0x28c>)
 80004ca:	681b      	ldr	r3, [r3, #0]
 80004cc:	1ad3      	subs	r3, r2, r3
 80004ce:	f5b3 6ffa 	cmp.w	r3, #2000	@ 0x7d0
 80004d2:	d358      	bcc.n	8000586 <Task_Alarm+0x23e>
				GPIO_Output(GREEN_LED,LOW);
 80004d4:	4b3a      	ldr	r3, [pc, #232]	@ (80005c0 <Task_Alarm+0x278>)
 80004d6:	2200      	movs	r2, #0
 80004d8:	e893 0003 	ldmia.w	r3, {r0, r1}
 80004dc:	f000 fe5c 	bl	8001198 <GPIO_Output>
				GPIO_Output(BLUE_LED,HIGH);
 80004e0:	4b38      	ldr	r3, [pc, #224]	@ (80005c4 <Task_Alarm+0x27c>)
 80004e2:	2201      	movs	r2, #1
 80004e4:	e893 0003 	ldmia.w	r3, {r0, r1}
 80004e8:	f000 fe56 	bl	8001198 <GPIO_Output>
				currLoopTime = TimeNow();
 80004ec:	f001 fa44 	bl	8001978 <TimeNow>
 80004f0:	4603      	mov	r3, r0
 80004f2:	4a38      	ldr	r2, [pc, #224]	@ (80005d4 <Task_Alarm+0x28c>)
 80004f4:	6013      	str	r3, [r2, #0]
			break;
 80004f6:	e046      	b.n	8000586 <Task_Alarm+0x23e>
			DisplayPrint(0, "TRIGGERED");
 80004f8:	4937      	ldr	r1, [pc, #220]	@ (80005d8 <Task_Alarm+0x290>)
 80004fa:	2000      	movs	r0, #0
 80004fc:	f000 f8ea 	bl	80006d4 <DisplayPrint>
			DisplayColor(RED);
 8000500:	f04f 607f 	mov.w	r0, #267386880	@ 0xff00000
 8000504:	f000 f922 	bl	800074c <DisplayColor>
			GPIO_Output(RED_LED,HIGH);
 8000508:	4b2c      	ldr	r3, [pc, #176]	@ (80005bc <Task_Alarm+0x274>)
 800050a:	2201      	movs	r2, #1
 800050c:	e893 0003 	ldmia.w	r3, {r0, r1}
 8000510:	f000 fe42 	bl	8001198 <GPIO_Output>
			GPIO_Output(GREEN_LED,LOW);
 8000514:	4b2a      	ldr	r3, [pc, #168]	@ (80005c0 <Task_Alarm+0x278>)
 8000516:	2200      	movs	r2, #0
 8000518:	e893 0003 	ldmia.w	r3, {r0, r1}
 800051c:	f000 fe3c 	bl	8001198 <GPIO_Output>
			GPIO_Output(BLUE_LED,LOW);
 8000520:	4b28      	ldr	r3, [pc, #160]	@ (80005c4 <Task_Alarm+0x27c>)
 8000522:	2200      	movs	r2, #0
 8000524:	e893 0003 	ldmia.w	r3, {r0, r1}
 8000528:	f000 fe36 	bl	8001198 <GPIO_Output>
			int BUZZTIME = 200;
 800052c:	23c8      	movs	r3, #200	@ 0xc8
 800052e:	607b      	str	r3, [r7, #4]
			if ((TimeNow() - currLoopTime) > BUZZTIME && (TimeNow() - currLoopTime) < 2*BUZZTIME) {
 8000530:	f001 fa22 	bl	8001978 <TimeNow>
 8000534:	4602      	mov	r2, r0
 8000536:	4b27      	ldr	r3, [pc, #156]	@ (80005d4 <Task_Alarm+0x28c>)
 8000538:	681b      	ldr	r3, [r3, #0]
 800053a:	1ad2      	subs	r2, r2, r3
 800053c:	687b      	ldr	r3, [r7, #4]
 800053e:	429a      	cmp	r2, r3
 8000540:	d909      	bls.n	8000556 <Task_Alarm+0x20e>
 8000542:	f001 fa19 	bl	8001978 <TimeNow>
 8000546:	4602      	mov	r2, r0
 8000548:	4b22      	ldr	r3, [pc, #136]	@ (80005d4 <Task_Alarm+0x28c>)
 800054a:	681b      	ldr	r3, [r3, #0]
 800054c:	1ad3      	subs	r3, r2, r3
 800054e:	687a      	ldr	r2, [r7, #4]
 8000550:	0052      	lsls	r2, r2, #1
 8000552:	4293      	cmp	r3, r2
 8000554:	d315      	bcc.n	8000582 <Task_Alarm+0x23a>
			else if ((TimeNow() - currLoopTime) >= 2*BUZZTIME) {
 8000556:	f001 fa0f 	bl	8001978 <TimeNow>
 800055a:	4602      	mov	r2, r0
 800055c:	4b1d      	ldr	r3, [pc, #116]	@ (80005d4 <Task_Alarm+0x28c>)
 800055e:	681b      	ldr	r3, [r3, #0]
 8000560:	1ad3      	subs	r3, r2, r3
 8000562:	687a      	ldr	r2, [r7, #4]
 8000564:	0052      	lsls	r2, r2, #1
 8000566:	4293      	cmp	r3, r2
 8000568:	d30f      	bcc.n	800058a <Task_Alarm+0x242>
				GPIO_Output(BUZZ, LOW);
 800056a:	4b17      	ldr	r3, [pc, #92]	@ (80005c8 <Task_Alarm+0x280>)
 800056c:	2200      	movs	r2, #0
 800056e:	e893 0003 	ldmia.w	r3, {r0, r1}
 8000572:	f000 fe11 	bl	8001198 <GPIO_Output>
				currLoopTime = TimeNow();
 8000576:	f001 f9ff 	bl	8001978 <TimeNow>
 800057a:	4603      	mov	r3, r0
 800057c:	4a15      	ldr	r2, [pc, #84]	@ (80005d4 <Task_Alarm+0x28c>)
 800057e:	6013      	str	r3, [r2, #0]
			break;
 8000580:	e003      	b.n	800058a <Task_Alarm+0x242>
				if (BUZZER_ENABLED)
 8000582:	bf00      	nop
			break;
 8000584:	e001      	b.n	800058a <Task_Alarm+0x242>
			break;
 8000586:	bf00      	nop
 8000588:	e000      	b.n	800058c <Task_Alarm+0x244>
			break;
 800058a:	bf00      	nop
}
 800058c:	bf00      	nop
 800058e:	3708      	adds	r7, #8
 8000590:	46bd      	mov	sp, r7
 8000592:	bd80      	pop	{r7, pc}
 8000594:	200001d0 	.word	0x200001d0
 8000598:	200001d4 	.word	0x200001d4
 800059c:	200001dc 	.word	0x200001dc
 80005a0:	200001cc 	.word	0x200001cc
 80005a4:	200001c4 	.word	0x200001c4
 80005a8:	08002f04 	.word	0x08002f04
 80005ac:	200001d8 	.word	0x200001d8
 80005b0:	08002f28 	.word	0x08002f28
 80005b4:	08002f48 	.word	0x08002f48
 80005b8:	08002ed0 	.word	0x08002ed0
 80005bc:	0800302c 	.word	0x0800302c
 80005c0:	08003034 	.word	0x08003034
 80005c4:	0800303c 	.word	0x0800303c
 80005c8:	08003054 	.word	0x08003054
 80005cc:	08002f70 	.word	0x08002f70
 80005d0:	00ffff00 	.word	0x00ffff00
 80005d4:	200001c8 	.word	0x200001c8
 80005d8:	08002f78 	.word	0x08002f78

080005dc <CallbackMotionDetect>:

void CallbackMotionDetect (void) {
 80005dc:	b480      	push	{r7}
 80005de:	af00      	add	r7, sp, #0
	// ...
	motionDetected = 1;
 80005e0:	4b03      	ldr	r3, [pc, #12]	@ (80005f0 <CallbackMotionDetect+0x14>)
 80005e2:	2201      	movs	r2, #1
 80005e4:	601a      	str	r2, [r3, #0]
}
 80005e6:	bf00      	nop
 80005e8:	46bd      	mov	sp, r7
 80005ea:	f85d 7b04 	ldr.w	r7, [sp], #4
 80005ee:	4770      	bx	lr
 80005f0:	200001d8 	.word	0x200001d8

080005f4 <CallbackButtonPress>:

void CallbackButtonPress (void) {
 80005f4:	b580      	push	{r7, lr}
 80005f6:	af00      	add	r7, sp, #0
	// ...
	buttonPressedStartTime = TimeNow();
 80005f8:	f001 f9be 	bl	8001978 <TimeNow>
 80005fc:	4603      	mov	r3, r0
 80005fe:	4a03      	ldr	r2, [pc, #12]	@ (800060c <CallbackButtonPress+0x18>)
 8000600:	6013      	str	r3, [r2, #0]
	buttonPressed = 1;
 8000602:	4b03      	ldr	r3, [pc, #12]	@ (8000610 <CallbackButtonPress+0x1c>)
 8000604:	2201      	movs	r2, #1
 8000606:	601a      	str	r2, [r3, #0]

}
 8000608:	bf00      	nop
 800060a:	bd80      	pop	{r7, pc}
 800060c:	200001cc 	.word	0x200001cc
 8000610:	200001d0 	.word	0x200001d0

08000614 <CallbackButtonRelease>:

void CallbackButtonRelease (void) {
 8000614:	b580      	push	{r7, lr}
 8000616:	af00      	add	r7, sp, #0
	// ...
	if (TimePassed(buttonPressedStartTime) > 50) {
 8000618:	4b07      	ldr	r3, [pc, #28]	@ (8000638 <CallbackButtonRelease+0x24>)
 800061a:	681b      	ldr	r3, [r3, #0]
 800061c:	4618      	mov	r0, r3
 800061e:	f001 f9b7 	bl	8001990 <TimePassed>
 8000622:	4603      	mov	r3, r0
 8000624:	2b32      	cmp	r3, #50	@ 0x32
 8000626:	d905      	bls.n	8000634 <CallbackButtonRelease+0x20>
		buttonPressed = 0;
 8000628:	4b04      	ldr	r3, [pc, #16]	@ (800063c <CallbackButtonRelease+0x28>)
 800062a:	2200      	movs	r2, #0
 800062c:	601a      	str	r2, [r3, #0]
		buttonReleased = 1;
 800062e:	4b04      	ldr	r3, [pc, #16]	@ (8000640 <CallbackButtonRelease+0x2c>)
 8000630:	2201      	movs	r2, #1
 8000632:	601a      	str	r2, [r3, #0]
	}

}
 8000634:	bf00      	nop
 8000636:	bd80      	pop	{r7, pc}
 8000638:	200001cc 	.word	0x200001cc
 800063c:	200001d0 	.word	0x200001d0
 8000640:	200001d4 	.word	0x200001d4

08000644 <ITM_SendChar>:
           \li Is blocking when a debugger is connected, but the previous character sent has not been transmitted.
  \param [in]     ch  Character to transmit.
  \returns            Character to transmit.
 */
__STATIC_INLINE uint32_t ITM_SendChar (uint32_t ch)
{
 8000644:	b480      	push	{r7}
 8000646:	b083      	sub	sp, #12
 8000648:	af00      	add	r7, sp, #0
 800064a:	6078      	str	r0, [r7, #4]
  if (((ITM->TCR & ITM_TCR_ITMENA_Msk) != 0UL) &&      /* ITM enabled */
 800064c:	f04f 4360 	mov.w	r3, #3758096384	@ 0xe0000000
 8000650:	f8d3 3e80 	ldr.w	r3, [r3, #3712]	@ 0xe80
 8000654:	f003 0301 	and.w	r3, r3, #1
 8000658:	2b00      	cmp	r3, #0
 800065a:	d013      	beq.n	8000684 <ITM_SendChar+0x40>
      ((ITM->TER & 1UL               ) != 0UL)   )     /* ITM Port #0 enabled */
 800065c:	f04f 4360 	mov.w	r3, #3758096384	@ 0xe0000000
 8000660:	f8d3 3e00 	ldr.w	r3, [r3, #3584]	@ 0xe00
 8000664:	f003 0301 	and.w	r3, r3, #1
  if (((ITM->TCR & ITM_TCR_ITMENA_Msk) != 0UL) &&      /* ITM enabled */
 8000668:	2b00      	cmp	r3, #0
 800066a:	d00b      	beq.n	8000684 <ITM_SendChar+0x40>
  {
    while (ITM->PORT[0U].u32 == 0UL)
 800066c:	e000      	b.n	8000670 <ITM_SendChar+0x2c>
    {
      __NOP();
 800066e:	bf00      	nop
    while (ITM->PORT[0U].u32 == 0UL)
 8000670:	f04f 4360 	mov.w	r3, #3758096384	@ 0xe0000000
 8000674:	681b      	ldr	r3, [r3, #0]
 8000676:	2b00      	cmp	r3, #0
 8000678:	d0f9      	beq.n	800066e <ITM_SendChar+0x2a>
    }
    ITM->PORT[0U].u8 = (uint8_t)ch;
 800067a:	f04f 4360 	mov.w	r3, #3758096384	@ 0xe0000000
 800067e:	687a      	ldr	r2, [r7, #4]
 8000680:	b2d2      	uxtb	r2, r2
 8000682:	701a      	strb	r2, [r3, #0]
  }
  return (ch);
 8000684:	687b      	ldr	r3, [r7, #4]
}
 8000686:	4618      	mov	r0, r3
 8000688:	370c      	adds	r7, #12
 800068a:	46bd      	mov	sp, r7
 800068c:	f85d 7b04 	ldr.w	r7, [sp], #4
 8000690:	4770      	bx	lr

08000692 <__io_putchar>:

#include "stm32l5xx.h"

//function to be able to use printf using the serial wire viewer (SWV)
// of the ARM cortex M family. AKA Instrumentation Trace Macrocell (ITM)
int __io_putchar(int c) {
 8000692:	b580      	push	{r7, lr}
 8000694:	b082      	sub	sp, #8
 8000696:	af00      	add	r7, sp, #0
 8000698:	6078      	str	r0, [r7, #4]
	ITM_SendChar(c);
 800069a:	687b      	ldr	r3, [r7, #4]
 800069c:	4618      	mov	r0, r3
 800069e:	f7ff ffd1 	bl	8000644 <ITM_SendChar>
	return c;
 80006a2:	687b      	ldr	r3, [r7, #4]
}
 80006a4:	4618      	mov	r0, r3
 80006a6:	3708      	adds	r7, #8
 80006a8:	46bd      	mov	sp, r7
 80006aa:	bd80      	pop	{r7, pc}

080006ac <DisplayEnable>:
static I2C_Xfer_t DispLine[ROWS] = {
	{&LeafyI2C, 0x7C, (void *)&txLine[0], 19, 1, 0, NULL},
	{&LeafyI2C, 0x7C, (void *)&txLine[1], 19, 1, 0, NULL} };

// Enable LCD display
void DisplayEnable (void) {
 80006ac:	b580      	push	{r7, lr}
 80006ae:	b082      	sub	sp, #8
 80006b0:	af02      	add	r7, sp, #8
	I2C_Enable(LeafyI2C);
 80006b2:	4b06      	ldr	r3, [pc, #24]	@ (80006cc <DisplayEnable+0x20>)
 80006b4:	691a      	ldr	r2, [r3, #16]
 80006b6:	9200      	str	r2, [sp, #0]
 80006b8:	cb0f      	ldmia	r3, {r0, r1, r2, r3}
 80006ba:	f000 ff1f 	bl	80014fc <I2C_Enable>
	I2C_Request(&DispInit);
 80006be:	4804      	ldr	r0, [pc, #16]	@ (80006d0 <DisplayEnable+0x24>)
 80006c0:	f000 ffa4 	bl	800160c <I2C_Request>
}
 80006c4:	bf00      	nop
 80006c6:	46bd      	mov	sp, r7
 80006c8:	bd80      	pop	{r7, pc}
 80006ca:	bf00      	nop
 80006cc:	20000134 	.word	0x20000134
 80006d0:	20000028 	.word	0x20000028

080006d4 <DisplayPrint>:
// Print a line of text with optional format specifiers
void DisplayPrint (const int line, const char *msg, ...) {
 80006d4:	b40e      	push	{r1, r2, r3}
 80006d6:	b580      	push	{r7, lr}
 80006d8:	b087      	sub	sp, #28
 80006da:	af00      	add	r7, sp, #0
 80006dc:	6078      	str	r0, [r7, #4]
	va_list args;
	va_start(args, msg);
 80006de:	f107 0328 	add.w	r3, r7, #40	@ 0x28
 80006e2:	60fb      	str	r3, [r7, #12]
	// Full buffer with formatted text and space pad the remainder
	int chars = vsnprintf((char *)txLine[line].text, COLS+1, msg, args);
 80006e4:	687a      	ldr	r2, [r7, #4]
 80006e6:	4613      	mov	r3, r2
 80006e8:	009b      	lsls	r3, r3, #2
 80006ea:	4413      	add	r3, r2
 80006ec:	009b      	lsls	r3, r3, #2
 80006ee:	4a15      	ldr	r2, [pc, #84]	@ (8000744 <DisplayPrint+0x70>)
 80006f0:	4413      	add	r3, r2
 80006f2:	1cd8      	adds	r0, r3, #3
 80006f4:	68fb      	ldr	r3, [r7, #12]
 80006f6:	6a7a      	ldr	r2, [r7, #36]	@ 0x24
 80006f8:	2111      	movs	r1, #17
 80006fa:	f001 fb6f 	bl	8001ddc <vsniprintf>
 80006fe:	6138      	str	r0, [r7, #16]
	for (int i = chars; i < COLS; i++)
 8000700:	693b      	ldr	r3, [r7, #16]
 8000702:	617b      	str	r3, [r7, #20]
 8000704:	e00e      	b.n	8000724 <DisplayPrint+0x50>
		txLine[line].text[i] = ' ';
 8000706:	490f      	ldr	r1, [pc, #60]	@ (8000744 <DisplayPrint+0x70>)
 8000708:	687a      	ldr	r2, [r7, #4]
 800070a:	4613      	mov	r3, r2
 800070c:	009b      	lsls	r3, r3, #2
 800070e:	4413      	add	r3, r2
 8000710:	009b      	lsls	r3, r3, #2
 8000712:	18ca      	adds	r2, r1, r3
 8000714:	697b      	ldr	r3, [r7, #20]
 8000716:	4413      	add	r3, r2
 8000718:	3303      	adds	r3, #3
 800071a:	2220      	movs	r2, #32
 800071c:	701a      	strb	r2, [r3, #0]
	for (int i = chars; i < COLS; i++)
 800071e:	697b      	ldr	r3, [r7, #20]
 8000720:	3301      	adds	r3, #1
 8000722:	617b      	str	r3, [r7, #20]
 8000724:	697b      	ldr	r3, [r7, #20]
 8000726:	2b0f      	cmp	r3, #15
 8000728:	dded      	ble.n	8000706 <DisplayPrint+0x32>

	updateLine[line] = true;
 800072a:	4a07      	ldr	r2, [pc, #28]	@ (8000748 <DisplayPrint+0x74>)
 800072c:	687b      	ldr	r3, [r7, #4]
 800072e:	4413      	add	r3, r2
 8000730:	2201      	movs	r2, #1
 8000732:	701a      	strb	r2, [r3, #0]
}
 8000734:	bf00      	nop
 8000736:	371c      	adds	r7, #28
 8000738:	46bd      	mov	sp, r7
 800073a:	e8bd 4080 	ldmia.w	sp!, {r7, lr}
 800073e:	b003      	add	sp, #12
 8000740:	4770      	bx	lr
 8000742:	bf00      	nop
 8000744:	20000000 	.word	0x20000000
 8000748:	200001e0 	.word	0x200001e0

0800074c <DisplayColor>:
static I2C_Xfer_t BltRed = {&LeafyI2C, 0x5A, (void *)&txRed, 2, 1, 0, NULL};
static I2C_Xfer_t BltGreen = {&LeafyI2C, 0x5A, (void *)&txGreen, 2, 1, 0, NULL};
static I2C_Xfer_t BltBlue = {&LeafyI2C, 0x5A, (void *)&txBlue, 2, 1, 0, NULL};

// Set new backlight color
void DisplayColor(Color_t color) {
 800074c:	b480      	push	{r7}
 800074e:	b083      	sub	sp, #12
 8000750:	af00      	add	r7, sp, #0
 8000752:	6078      	str	r0, [r7, #4]
	txRed.data = (color >> 16) & 0xFF;
 8000754:	687b      	ldr	r3, [r7, #4]
 8000756:	0c1b      	lsrs	r3, r3, #16
 8000758:	b2da      	uxtb	r2, r3
 800075a:	4b0a      	ldr	r3, [pc, #40]	@ (8000784 <DisplayColor+0x38>)
 800075c:	705a      	strb	r2, [r3, #1]
	txGreen.data = (color >> 8) & 0xFF;
 800075e:	687b      	ldr	r3, [r7, #4]
 8000760:	0a1b      	lsrs	r3, r3, #8
 8000762:	b2da      	uxtb	r2, r3
 8000764:	4b08      	ldr	r3, [pc, #32]	@ (8000788 <DisplayColor+0x3c>)
 8000766:	705a      	strb	r2, [r3, #1]
	txBlue.data = (color >> 0) & 0xFF;
 8000768:	687b      	ldr	r3, [r7, #4]
 800076a:	b2da      	uxtb	r2, r3
 800076c:	4b07      	ldr	r3, [pc, #28]	@ (800078c <DisplayColor+0x40>)
 800076e:	705a      	strb	r2, [r3, #1]
	updateBlt = true;
 8000770:	4b07      	ldr	r3, [pc, #28]	@ (8000790 <DisplayColor+0x44>)
 8000772:	2201      	movs	r2, #1
 8000774:	701a      	strb	r2, [r3, #0]
}
 8000776:	bf00      	nop
 8000778:	370c      	adds	r7, #12
 800077a:	46bd      	mov	sp, r7
 800077c:	f85d 7b04 	ldr.w	r7, [sp], #4
 8000780:	4770      	bx	lr
 8000782:	bf00      	nop
 8000784:	20000070 	.word	0x20000070
 8000788:	20000074 	.word	0x20000074
 800078c:	20000078 	.word	0x20000078
 8000790:	2000007a 	.word	0x2000007a

08000794 <UpdateDisplay>:

// --------------------------------------------------------
// Automatic background updates
// --------------------------------------------------------
// Called from main loop
void UpdateDisplay(void) {
 8000794:	b580      	push	{r7, lr}
 8000796:	b082      	sub	sp, #8
 8000798:	af00      	add	r7, sp, #0
	for (int i = 0; i < ROWS; i++)
 800079a:	2300      	movs	r3, #0
 800079c:	607b      	str	r3, [r7, #4]
 800079e:	e025      	b.n	80007ec <UpdateDisplay+0x58>
		if (!DispLine[i].busy && updateLine[i]) {
 80007a0:	4921      	ldr	r1, [pc, #132]	@ (8000828 <UpdateDisplay+0x94>)
 80007a2:	687a      	ldr	r2, [r7, #4]
 80007a4:	4613      	mov	r3, r2
 80007a6:	005b      	lsls	r3, r3, #1
 80007a8:	4413      	add	r3, r2
 80007aa:	00db      	lsls	r3, r3, #3
 80007ac:	440b      	add	r3, r1
 80007ae:	3311      	adds	r3, #17
 80007b0:	781b      	ldrb	r3, [r3, #0]
 80007b2:	f083 0301 	eor.w	r3, r3, #1
 80007b6:	b2db      	uxtb	r3, r3
 80007b8:	2b00      	cmp	r3, #0
 80007ba:	d014      	beq.n	80007e6 <UpdateDisplay+0x52>
 80007bc:	4a1b      	ldr	r2, [pc, #108]	@ (800082c <UpdateDisplay+0x98>)
 80007be:	687b      	ldr	r3, [r7, #4]
 80007c0:	4413      	add	r3, r2
 80007c2:	781b      	ldrb	r3, [r3, #0]
 80007c4:	2b00      	cmp	r3, #0
 80007c6:	d00e      	beq.n	80007e6 <UpdateDisplay+0x52>
			updateLine[i] = false;
 80007c8:	4a18      	ldr	r2, [pc, #96]	@ (800082c <UpdateDisplay+0x98>)
 80007ca:	687b      	ldr	r3, [r7, #4]
 80007cc:	4413      	add	r3, r2
 80007ce:	2200      	movs	r2, #0
 80007d0:	701a      	strb	r2, [r3, #0]
			I2C_Request(&DispLine[i]);
 80007d2:	687a      	ldr	r2, [r7, #4]
 80007d4:	4613      	mov	r3, r2
 80007d6:	005b      	lsls	r3, r3, #1
 80007d8:	4413      	add	r3, r2
 80007da:	00db      	lsls	r3, r3, #3
 80007dc:	4a12      	ldr	r2, [pc, #72]	@ (8000828 <UpdateDisplay+0x94>)
 80007de:	4413      	add	r3, r2
 80007e0:	4618      	mov	r0, r3
 80007e2:	f000 ff13 	bl	800160c <I2C_Request>
	for (int i = 0; i < ROWS; i++)
 80007e6:	687b      	ldr	r3, [r7, #4]
 80007e8:	3301      	adds	r3, #1
 80007ea:	607b      	str	r3, [r7, #4]
 80007ec:	687b      	ldr	r3, [r7, #4]
 80007ee:	2b01      	cmp	r3, #1
 80007f0:	ddd6      	ble.n	80007a0 <UpdateDisplay+0xc>
		}
	if (!BltBlue.busy && updateBlt) {
 80007f2:	4b0f      	ldr	r3, [pc, #60]	@ (8000830 <UpdateDisplay+0x9c>)
 80007f4:	7c5b      	ldrb	r3, [r3, #17]
 80007f6:	f083 0301 	eor.w	r3, r3, #1
 80007fa:	b2db      	uxtb	r3, r3
 80007fc:	2b00      	cmp	r3, #0
 80007fe:	d00f      	beq.n	8000820 <UpdateDisplay+0x8c>
 8000800:	4b0c      	ldr	r3, [pc, #48]	@ (8000834 <UpdateDisplay+0xa0>)
 8000802:	781b      	ldrb	r3, [r3, #0]
 8000804:	2b00      	cmp	r3, #0
 8000806:	d00b      	beq.n	8000820 <UpdateDisplay+0x8c>
		updateBlt = false;
 8000808:	4b0a      	ldr	r3, [pc, #40]	@ (8000834 <UpdateDisplay+0xa0>)
 800080a:	2200      	movs	r2, #0
 800080c:	701a      	strb	r2, [r3, #0]
		I2C_Request(&BltRed);
 800080e:	480a      	ldr	r0, [pc, #40]	@ (8000838 <UpdateDisplay+0xa4>)
 8000810:	f000 fefc 	bl	800160c <I2C_Request>
		I2C_Request(&BltGreen);
 8000814:	4809      	ldr	r0, [pc, #36]	@ (800083c <UpdateDisplay+0xa8>)
 8000816:	f000 fef9 	bl	800160c <I2C_Request>
		I2C_Request(&BltBlue);
 800081a:	4805      	ldr	r0, [pc, #20]	@ (8000830 <UpdateDisplay+0x9c>)
 800081c:	f000 fef6 	bl	800160c <I2C_Request>
	}
}
 8000820:	bf00      	nop
 8000822:	3708      	adds	r7, #8
 8000824:	46bd      	mov	sp, r7
 8000826:	bd80      	pop	{r7, pc}
 8000828:	20000040 	.word	0x20000040
 800082c:	200001e0 	.word	0x200001e0
 8000830:	200000ac 	.word	0x200000ac
 8000834:	2000007a 	.word	0x2000007a
 8000838:	2000007c 	.word	0x2000007c
 800083c:	20000094 	.word	0x20000094

08000840 <Init_Game>:
static enum {TITLEMOLE, TITLEPONG, GAMEMOLE, GAMEPONG, ENDMOLE, ENDPONG} state;


static int moles_temp; //temp storage of moles, this will hold whatever.

void Init_Game (void) {
 8000840:	b580      	push	{r7, lr}
 8000842:	af00      	add	r7, sp, #0
	GPIO_PortEnable(GPIOX);
 8000844:	4807      	ldr	r0, [pc, #28]	@ (8000864 <Init_Game+0x24>)
 8000846:	f000 fbd1 	bl	8000fec <GPIO_PortEnable>
	timeShift = TimeNow();
 800084a:	f001 f895 	bl	8001978 <TimeNow>
 800084e:	4603      	mov	r3, r0
 8000850:	4a05      	ldr	r2, [pc, #20]	@ (8000868 <Init_Game+0x28>)
 8000852:	6013      	str	r3, [r2, #0]
	printf("Running init of mole game\n");
 8000854:	4805      	ldr	r0, [pc, #20]	@ (800086c <Init_Game+0x2c>)
 8000856:	f001 fa47 	bl	8001ce8 <puts>
	state = TITLEMOLE;
 800085a:	4b05      	ldr	r3, [pc, #20]	@ (8000870 <Init_Game+0x30>)
 800085c:	2200      	movs	r2, #0
 800085e:	701a      	strb	r2, [r3, #0]
}
 8000860:	bf00      	nop
 8000862:	bd80      	pop	{r7, pc}
 8000864:	200000cc 	.word	0x200000cc
 8000868:	20000220 	.word	0x20000220
 800086c:	08002f84 	.word	0x08002f84
 8000870:	20000240 	.word	0x20000240

08000874 <Task_Game>:

void Task_Game (void) {
 8000874:	b580      	push	{r7, lr}
 8000876:	b084      	sub	sp, #16
 8000878:	af00      	add	r7, sp, #0

	UpdateDisplay();
 800087a:	f7ff ff8b 	bl	8000794 <UpdateDisplay>

	switch (state) {
 800087e:	4ba8      	ldr	r3, [pc, #672]	@ (8000b20 <Task_Game+0x2ac>)
 8000880:	781b      	ldrb	r3, [r3, #0]
 8000882:	2b05      	cmp	r3, #5
 8000884:	f200 8385 	bhi.w	8000f92 <Task_Game+0x71e>
 8000888:	a201      	add	r2, pc, #4	@ (adr r2, 8000890 <Task_Game+0x1c>)
 800088a:	f852 f023 	ldr.w	pc, [r2, r3, lsl #2]
 800088e:	bf00      	nop
 8000890:	080008a9 	.word	0x080008a9
 8000894:	08000a15 	.word	0x08000a15
 8000898:	08000cc5 	.word	0x08000cc5
 800089c:	08000bd5 	.word	0x08000bd5
 80008a0:	08000f29 	.word	0x08000f29
 80008a4:	08000f55 	.word	0x08000f55
			case TITLEMOLE:
				DisplayPrint(1, "MOLEMODE");
 80008a8:	499e      	ldr	r1, [pc, #632]	@ (8000b24 <Task_Game+0x2b0>)
 80008aa:	2001      	movs	r0, #1
 80008ac:	f7ff ff12 	bl	80006d4 <DisplayPrint>
				// check if first button is pressed to switch to pong
				if (GPIO_PortInput(GPIOX) & 1 << (0 + 8) && TimePassed(time_game_changed) > 1000) { //check if button is pressed
 80008b0:	489d      	ldr	r0, [pc, #628]	@ (8000b28 <Task_Game+0x2b4>)
 80008b2:	f000 fbe2 	bl	800107a <GPIO_PortInput>
 80008b6:	4603      	mov	r3, r0
 80008b8:	f403 7380 	and.w	r3, r3, #256	@ 0x100
 80008bc:	2b00      	cmp	r3, #0
 80008be:	d011      	beq.n	80008e4 <Task_Game+0x70>
 80008c0:	4b9a      	ldr	r3, [pc, #616]	@ (8000b2c <Task_Game+0x2b8>)
 80008c2:	681b      	ldr	r3, [r3, #0]
 80008c4:	4618      	mov	r0, r3
 80008c6:	f001 f863 	bl	8001990 <TimePassed>
 80008ca:	4603      	mov	r3, r0
 80008cc:	f5b3 7f7a 	cmp.w	r3, #1000	@ 0x3e8
 80008d0:	d908      	bls.n	80008e4 <Task_Game+0x70>
					state = TITLEPONG;
 80008d2:	4b93      	ldr	r3, [pc, #588]	@ (8000b20 <Task_Game+0x2ac>)
 80008d4:	2201      	movs	r2, #1
 80008d6:	701a      	strb	r2, [r3, #0]
					time_game_changed = TimeNow();
 80008d8:	f001 f84e 	bl	8001978 <TimeNow>
 80008dc:	4603      	mov	r3, r0
 80008de:	461a      	mov	r2, r3
 80008e0:	4b92      	ldr	r3, [pc, #584]	@ (8000b2c <Task_Game+0x2b8>)
 80008e2:	601a      	str	r2, [r3, #0]
				}

				MOLE_TIMEOUT = MOLE_TIME*4;
 80008e4:	4b92      	ldr	r3, [pc, #584]	@ (8000b30 <Task_Game+0x2bc>)
 80008e6:	681b      	ldr	r3, [r3, #0]
 80008e8:	009b      	lsls	r3, r3, #2
 80008ea:	4a92      	ldr	r2, [pc, #584]	@ (8000b34 <Task_Game+0x2c0>)
 80008ec:	6013      	str	r3, [r2, #0]
				if (GPIO_PortInput(GPIOX) & 1 << (3 + 8) && TimePassed(select_press_time) > 1000) { //check if select is pressed
 80008ee:	488e      	ldr	r0, [pc, #568]	@ (8000b28 <Task_Game+0x2b4>)
 80008f0:	f000 fbc3 	bl	800107a <GPIO_PortInput>
 80008f4:	4603      	mov	r3, r0
 80008f6:	f403 6300 	and.w	r3, r3, #2048	@ 0x800
 80008fa:	2b00      	cmp	r3, #0
 80008fc:	d033      	beq.n	8000966 <Task_Game+0xf2>
 80008fe:	4b8e      	ldr	r3, [pc, #568]	@ (8000b38 <Task_Game+0x2c4>)
 8000900:	681b      	ldr	r3, [r3, #0]
 8000902:	4618      	mov	r0, r3
 8000904:	f001 f844 	bl	8001990 <TimePassed>
 8000908:	4603      	mov	r3, r0
 800090a:	f5b3 7f7a 	cmp.w	r3, #1000	@ 0x3e8
 800090e:	d92a      	bls.n	8000966 <Task_Game+0xf2>
					select_press_time = TimeNow(); //so button can only be pressed once every 50ms or so
 8000910:	f001 f832 	bl	8001978 <TimeNow>
 8000914:	4603      	mov	r3, r0
 8000916:	4a88      	ldr	r2, [pc, #544]	@ (8000b38 <Task_Game+0x2c4>)
 8000918:	6013      	str	r3, [r2, #0]
					switch (MOLE_TIME) {
 800091a:	4b85      	ldr	r3, [pc, #532]	@ (8000b30 <Task_Game+0x2bc>)
 800091c:	681b      	ldr	r3, [r3, #0]
 800091e:	f5b3 7f7a 	cmp.w	r3, #1000	@ 0x3e8
 8000922:	d017      	beq.n	8000954 <Task_Game+0xe0>
 8000924:	f5b3 7f7a 	cmp.w	r3, #1000	@ 0x3e8
 8000928:	dc40      	bgt.n	80009ac <Task_Game+0x138>
 800092a:	2bfa      	cmp	r3, #250	@ 0xfa
 800092c:	d003      	beq.n	8000936 <Task_Game+0xc2>
 800092e:	f5b3 7ffa 	cmp.w	r3, #500	@ 0x1f4
 8000932:	d008      	beq.n	8000946 <Task_Game+0xd2>
 8000934:	e03a      	b.n	80009ac <Task_Game+0x138>
						case 250:
							MOLE_TIME = 1000;
 8000936:	4b7e      	ldr	r3, [pc, #504]	@ (8000b30 <Task_Game+0x2bc>)
 8000938:	f44f 727a 	mov.w	r2, #1000	@ 0x3e8
 800093c:	601a      	str	r2, [r3, #0]
							printf("Selected 1000\n");
 800093e:	487f      	ldr	r0, [pc, #508]	@ (8000b3c <Task_Game+0x2c8>)
 8000940:	f001 f9d2 	bl	8001ce8 <puts>
							break;
 8000944:	e00e      	b.n	8000964 <Task_Game+0xf0>
						case 500:
							MOLE_TIME = 250;
 8000946:	4b7a      	ldr	r3, [pc, #488]	@ (8000b30 <Task_Game+0x2bc>)
 8000948:	22fa      	movs	r2, #250	@ 0xfa
 800094a:	601a      	str	r2, [r3, #0]
							printf("Selected 250\n");
 800094c:	487c      	ldr	r0, [pc, #496]	@ (8000b40 <Task_Game+0x2cc>)
 800094e:	f001 f9cb 	bl	8001ce8 <puts>
							break;
 8000952:	e007      	b.n	8000964 <Task_Game+0xf0>
						case 1000:
							MOLE_TIME = 500;
 8000954:	4b76      	ldr	r3, [pc, #472]	@ (8000b30 <Task_Game+0x2bc>)
 8000956:	f44f 72fa 	mov.w	r2, #500	@ 0x1f4
 800095a:	601a      	str	r2, [r3, #0]
							printf("Selected 500\n");
 800095c:	4879      	ldr	r0, [pc, #484]	@ (8000b44 <Task_Game+0x2d0>)
 800095e:	f001 f9c3 	bl	8001ce8 <puts>
							break;
 8000962:	bf00      	nop
					switch (MOLE_TIME) {
 8000964:	e022      	b.n	80009ac <Task_Game+0x138>
					}
				} else if (GPIO_PortInput(GPIOX) & 1 << (4 + 8)) { //check if start is pressed
 8000966:	4870      	ldr	r0, [pc, #448]	@ (8000b28 <Task_Game+0x2b4>)
 8000968:	f000 fb87 	bl	800107a <GPIO_PortInput>
 800096c:	4603      	mov	r3, r0
 800096e:	f403 5380 	and.w	r3, r3, #4096	@ 0x1000
 8000972:	2b00      	cmp	r3, #0
 8000974:	d01a      	beq.n	80009ac <Task_Game+0x138>
					GPIO_PortOutput(GPIOX, 0x00); //clear board
 8000976:	2100      	movs	r1, #0
 8000978:	486b      	ldr	r0, [pc, #428]	@ (8000b28 <Task_Game+0x2b4>)
 800097a:	f000 fc51 	bl	8001220 <GPIO_PortOutput>
					mole_exists = 0;
 800097e:	4b72      	ldr	r3, [pc, #456]	@ (8000b48 <Task_Game+0x2d4>)
 8000980:	2200      	movs	r2, #0
 8000982:	601a      	str	r2, [r3, #0]
					pos = 0;
 8000984:	4b71      	ldr	r3, [pc, #452]	@ (8000b4c <Task_Game+0x2d8>)
 8000986:	2200      	movs	r2, #0
 8000988:	601a      	str	r2, [r3, #0]
					dir = 0;
 800098a:	4b71      	ldr	r3, [pc, #452]	@ (8000b50 <Task_Game+0x2dc>)
 800098c:	2200      	movs	r2, #0
 800098e:	601a      	str	r2, [r3, #0]
					score = 0;
 8000990:	4b70      	ldr	r3, [pc, #448]	@ (8000b54 <Task_Game+0x2e0>)
 8000992:	2200      	movs	r2, #0
 8000994:	701a      	strb	r2, [r3, #0]
					state = GAMEMOLE;
 8000996:	4b62      	ldr	r3, [pc, #392]	@ (8000b20 <Task_Game+0x2ac>)
 8000998:	2202      	movs	r2, #2
 800099a:	701a      	strb	r2, [r3, #0]
					total_game_time = TimeNow();
 800099c:	f000 ffec 	bl	8001978 <TimeNow>
 80009a0:	4603      	mov	r3, r0
 80009a2:	4a6d      	ldr	r2, [pc, #436]	@ (8000b58 <Task_Game+0x2e4>)
 80009a4:	6013      	str	r3, [r2, #0]
					printf("Started Game\n");
 80009a6:	486d      	ldr	r0, [pc, #436]	@ (8000b5c <Task_Game+0x2e8>)
 80009a8:	f001 f99e 	bl	8001ce8 <puts>
				}

				//make lights turn on
				if (TimePassed(game_time) >= MOLE_TIME){ //only runs every MOLE_TIME ms
 80009ac:	4b6c      	ldr	r3, [pc, #432]	@ (8000b60 <Task_Game+0x2ec>)
 80009ae:	681b      	ldr	r3, [r3, #0]
 80009b0:	4618      	mov	r0, r3
 80009b2:	f000 ffed 	bl	8001990 <TimePassed>
 80009b6:	4603      	mov	r3, r0
 80009b8:	4a5d      	ldr	r2, [pc, #372]	@ (8000b30 <Task_Game+0x2bc>)
 80009ba:	6812      	ldr	r2, [r2, #0]
 80009bc:	4293      	cmp	r3, r2
 80009be:	f0c0 82df 	bcc.w	8000f80 <Task_Game+0x70c>
					if (1) {
						moles = 0x00;
 80009c2:	4b68      	ldr	r3, [pc, #416]	@ (8000b64 <Task_Game+0x2f0>)
 80009c4:	2200      	movs	r2, #0
 80009c6:	701a      	strb	r2, [r3, #0]
						mole_location = rand() % 8;
 80009c8:	f001 f826 	bl	8001a18 <rand>
 80009cc:	4603      	mov	r3, r0
 80009ce:	425a      	negs	r2, r3
 80009d0:	f003 0307 	and.w	r3, r3, #7
 80009d4:	f002 0207 	and.w	r2, r2, #7
 80009d8:	bf58      	it	pl
 80009da:	4253      	negpl	r3, r2
 80009dc:	4a62      	ldr	r2, [pc, #392]	@ (8000b68 <Task_Game+0x2f4>)
 80009de:	6013      	str	r3, [r2, #0]
						moles |= 1 << mole_location;
 80009e0:	4b61      	ldr	r3, [pc, #388]	@ (8000b68 <Task_Game+0x2f4>)
 80009e2:	681b      	ldr	r3, [r3, #0]
 80009e4:	2201      	movs	r2, #1
 80009e6:	fa02 f303 	lsl.w	r3, r2, r3
 80009ea:	b25a      	sxtb	r2, r3
 80009ec:	4b5d      	ldr	r3, [pc, #372]	@ (8000b64 <Task_Game+0x2f0>)
 80009ee:	781b      	ldrb	r3, [r3, #0]
 80009f0:	b25b      	sxtb	r3, r3
 80009f2:	4313      	orrs	r3, r2
 80009f4:	b25b      	sxtb	r3, r3
 80009f6:	b2da      	uxtb	r2, r3
 80009f8:	4b5a      	ldr	r3, [pc, #360]	@ (8000b64 <Task_Game+0x2f0>)
 80009fa:	701a      	strb	r2, [r3, #0]
						GPIO_PortOutput(GPIOX, moles); // GENERATE the mole
 80009fc:	4b59      	ldr	r3, [pc, #356]	@ (8000b64 <Task_Game+0x2f0>)
 80009fe:	781b      	ldrb	r3, [r3, #0]
 8000a00:	4619      	mov	r1, r3
 8000a02:	4849      	ldr	r0, [pc, #292]	@ (8000b28 <Task_Game+0x2b4>)
 8000a04:	f000 fc0c 	bl	8001220 <GPIO_PortOutput>
					}
					game_time = TimeNow();
 8000a08:	f000 ffb6 	bl	8001978 <TimeNow>
 8000a0c:	4603      	mov	r3, r0
 8000a0e:	4a54      	ldr	r2, [pc, #336]	@ (8000b60 <Task_Game+0x2ec>)
 8000a10:	6013      	str	r3, [r2, #0]
				}
				break;
 8000a12:	e2b5      	b.n	8000f80 <Task_Game+0x70c>
			case TITLEPONG:
				// check if first button is pressed to switch to mole
				if (GPIO_PortInput(GPIOX) & 1 << (0 + 8) && TimePassed(time_game_changed) > 1000) { //check if button is pressed
 8000a14:	4844      	ldr	r0, [pc, #272]	@ (8000b28 <Task_Game+0x2b4>)
 8000a16:	f000 fb30 	bl	800107a <GPIO_PortInput>
 8000a1a:	4603      	mov	r3, r0
 8000a1c:	f403 7380 	and.w	r3, r3, #256	@ 0x100
 8000a20:	2b00      	cmp	r3, #0
 8000a22:	d011      	beq.n	8000a48 <Task_Game+0x1d4>
 8000a24:	4b41      	ldr	r3, [pc, #260]	@ (8000b2c <Task_Game+0x2b8>)
 8000a26:	681b      	ldr	r3, [r3, #0]
 8000a28:	4618      	mov	r0, r3
 8000a2a:	f000 ffb1 	bl	8001990 <TimePassed>
 8000a2e:	4603      	mov	r3, r0
 8000a30:	f5b3 7f7a 	cmp.w	r3, #1000	@ 0x3e8
 8000a34:	d908      	bls.n	8000a48 <Task_Game+0x1d4>
					state = TITLEMOLE;
 8000a36:	4b3a      	ldr	r3, [pc, #232]	@ (8000b20 <Task_Game+0x2ac>)
 8000a38:	2200      	movs	r2, #0
 8000a3a:	701a      	strb	r2, [r3, #0]
					time_game_changed = TimeNow();
 8000a3c:	f000 ff9c 	bl	8001978 <TimeNow>
 8000a40:	4603      	mov	r3, r0
 8000a42:	461a      	mov	r2, r3
 8000a44:	4b39      	ldr	r3, [pc, #228]	@ (8000b2c <Task_Game+0x2b8>)
 8000a46:	601a      	str	r2, [r3, #0]
				}
				DisplayPrint(1, "PONGMODE");
 8000a48:	4948      	ldr	r1, [pc, #288]	@ (8000b6c <Task_Game+0x2f8>)
 8000a4a:	2001      	movs	r0, #1
 8000a4c:	f7ff fe42 	bl	80006d4 <DisplayPrint>

				if (TimePassed(game_time) > PONG_TIME) {
 8000a50:	4b43      	ldr	r3, [pc, #268]	@ (8000b60 <Task_Game+0x2ec>)
 8000a52:	681b      	ldr	r3, [r3, #0]
 8000a54:	4618      	mov	r0, r3
 8000a56:	f000 ff9b 	bl	8001990 <TimePassed>
 8000a5a:	4603      	mov	r3, r0
 8000a5c:	4a44      	ldr	r2, [pc, #272]	@ (8000b70 <Task_Game+0x2fc>)
 8000a5e:	6812      	ldr	r2, [r2, #0]
 8000a60:	4293      	cmp	r3, r2
 8000a62:	d929      	bls.n	8000ab8 <Task_Game+0x244>
					if (position == 7 || position == 0)
 8000a64:	4b43      	ldr	r3, [pc, #268]	@ (8000b74 <Task_Game+0x300>)
 8000a66:	681b      	ldr	r3, [r3, #0]
 8000a68:	2b07      	cmp	r3, #7
 8000a6a:	d003      	beq.n	8000a74 <Task_Game+0x200>
 8000a6c:	4b41      	ldr	r3, [pc, #260]	@ (8000b74 <Task_Game+0x300>)
 8000a6e:	681b      	ldr	r3, [r3, #0]
 8000a70:	2b00      	cmp	r3, #0
 8000a72:	d105      	bne.n	8000a80 <Task_Game+0x20c>
						direction ^=1;
 8000a74:	4b40      	ldr	r3, [pc, #256]	@ (8000b78 <Task_Game+0x304>)
 8000a76:	681b      	ldr	r3, [r3, #0]
 8000a78:	f083 0301 	eor.w	r3, r3, #1
 8000a7c:	4a3e      	ldr	r2, [pc, #248]	@ (8000b78 <Task_Game+0x304>)
 8000a7e:	6013      	str	r3, [r2, #0]
					position += direction ? +1 : -1;
 8000a80:	4b3d      	ldr	r3, [pc, #244]	@ (8000b78 <Task_Game+0x304>)
 8000a82:	681b      	ldr	r3, [r3, #0]
 8000a84:	2b00      	cmp	r3, #0
 8000a86:	d001      	beq.n	8000a8c <Task_Game+0x218>
 8000a88:	2201      	movs	r2, #1
 8000a8a:	e001      	b.n	8000a90 <Task_Game+0x21c>
 8000a8c:	f04f 32ff 	mov.w	r2, #4294967295
 8000a90:	4b38      	ldr	r3, [pc, #224]	@ (8000b74 <Task_Game+0x300>)
 8000a92:	681b      	ldr	r3, [r3, #0]
 8000a94:	4413      	add	r3, r2
 8000a96:	4a37      	ldr	r2, [pc, #220]	@ (8000b74 <Task_Game+0x300>)
 8000a98:	6013      	str	r3, [r2, #0]
					GPIO_PortOutput(GPIOX, 1 << position);
 8000a9a:	4b36      	ldr	r3, [pc, #216]	@ (8000b74 <Task_Game+0x300>)
 8000a9c:	681b      	ldr	r3, [r3, #0]
 8000a9e:	2201      	movs	r2, #1
 8000aa0:	fa02 f303 	lsl.w	r3, r2, r3
 8000aa4:	b29b      	uxth	r3, r3
 8000aa6:	4619      	mov	r1, r3
 8000aa8:	481f      	ldr	r0, [pc, #124]	@ (8000b28 <Task_Game+0x2b4>)
 8000aaa:	f000 fbb9 	bl	8001220 <GPIO_PortOutput>
					game_time = TimeNow();
 8000aae:	f000 ff63 	bl	8001978 <TimeNow>
 8000ab2:	4603      	mov	r3, r0
 8000ab4:	4a2a      	ldr	r2, [pc, #168]	@ (8000b60 <Task_Game+0x2ec>)
 8000ab6:	6013      	str	r3, [r2, #0]
				}

				if (GPIO_PortInput(GPIOX) & 1 << (3 + 8) && TimePassed(select_press_time) > 1000) { //check if select is pressed
 8000ab8:	481b      	ldr	r0, [pc, #108]	@ (8000b28 <Task_Game+0x2b4>)
 8000aba:	f000 fade 	bl	800107a <GPIO_PortInput>
 8000abe:	4603      	mov	r3, r0
 8000ac0:	f403 6300 	and.w	r3, r3, #2048	@ 0x800
 8000ac4:	2b00      	cmp	r3, #0
 8000ac6:	d062      	beq.n	8000b8e <Task_Game+0x31a>
 8000ac8:	4b1b      	ldr	r3, [pc, #108]	@ (8000b38 <Task_Game+0x2c4>)
 8000aca:	681b      	ldr	r3, [r3, #0]
 8000acc:	4618      	mov	r0, r3
 8000ace:	f000 ff5f 	bl	8001990 <TimePassed>
 8000ad2:	4603      	mov	r3, r0
 8000ad4:	f5b3 7f7a 	cmp.w	r3, #1000	@ 0x3e8
 8000ad8:	d959      	bls.n	8000b8e <Task_Game+0x31a>
					select_press_time = TimeNow(); //so button can only be pressed once every 50ms or so
 8000ada:	f000 ff4d 	bl	8001978 <TimeNow>
 8000ade:	4603      	mov	r3, r0
 8000ae0:	4a15      	ldr	r2, [pc, #84]	@ (8000b38 <Task_Game+0x2c4>)
 8000ae2:	6013      	str	r3, [r2, #0]
					switch (PONG_TIME) {
 8000ae4:	4b22      	ldr	r3, [pc, #136]	@ (8000b70 <Task_Game+0x2fc>)
 8000ae6:	681b      	ldr	r3, [r3, #0]
 8000ae8:	f5b3 7f7a 	cmp.w	r3, #1000	@ 0x3e8
 8000aec:	d046      	beq.n	8000b7c <Task_Game+0x308>
 8000aee:	f5b3 7f7a 	cmp.w	r3, #1000	@ 0x3e8
 8000af2:	dc6e      	bgt.n	8000bd2 <Task_Game+0x35e>
 8000af4:	2bfa      	cmp	r3, #250	@ 0xfa
 8000af6:	d003      	beq.n	8000b00 <Task_Game+0x28c>
 8000af8:	f5b3 7ffa 	cmp.w	r3, #500	@ 0x1f4
 8000afc:	d008      	beq.n	8000b10 <Task_Game+0x29c>
 8000afe:	e068      	b.n	8000bd2 <Task_Game+0x35e>
						case 250:
							PONG_TIME = 1000;
 8000b00:	4b1b      	ldr	r3, [pc, #108]	@ (8000b70 <Task_Game+0x2fc>)
 8000b02:	f44f 727a 	mov.w	r2, #1000	@ 0x3e8
 8000b06:	601a      	str	r2, [r3, #0]
							printf("Selected 1000\n");
 8000b08:	480c      	ldr	r0, [pc, #48]	@ (8000b3c <Task_Game+0x2c8>)
 8000b0a:	f001 f8ed 	bl	8001ce8 <puts>
							break;
 8000b0e:	e03d      	b.n	8000b8c <Task_Game+0x318>
						case 500:
							PONG_TIME = 250;
 8000b10:	4b17      	ldr	r3, [pc, #92]	@ (8000b70 <Task_Game+0x2fc>)
 8000b12:	22fa      	movs	r2, #250	@ 0xfa
 8000b14:	601a      	str	r2, [r3, #0]
							printf("Selected 250\n");
 8000b16:	480a      	ldr	r0, [pc, #40]	@ (8000b40 <Task_Game+0x2cc>)
 8000b18:	f001 f8e6 	bl	8001ce8 <puts>
							break;
 8000b1c:	e036      	b.n	8000b8c <Task_Game+0x318>
 8000b1e:	bf00      	nop
 8000b20:	20000240 	.word	0x20000240
 8000b24:	08002fa0 	.word	0x08002fa0
 8000b28:	200000cc 	.word	0x200000cc
 8000b2c:	2000023c 	.word	0x2000023c
 8000b30:	200000c4 	.word	0x200000c4
 8000b34:	200001e4 	.word	0x200001e4
 8000b38:	20000218 	.word	0x20000218
 8000b3c:	08002fac 	.word	0x08002fac
 8000b40:	08002fbc 	.word	0x08002fbc
 8000b44:	08002fcc 	.word	0x08002fcc
 8000b48:	200001e8 	.word	0x200001e8
 8000b4c:	20000224 	.word	0x20000224
 8000b50:	20000228 	.word	0x20000228
 8000b54:	2000022c 	.word	0x2000022c
 8000b58:	2000021c 	.word	0x2000021c
 8000b5c:	08002fdc 	.word	0x08002fdc
 8000b60:	20000214 	.word	0x20000214
 8000b64:	20000210 	.word	0x20000210
 8000b68:	2000020c 	.word	0x2000020c
 8000b6c:	08002fec 	.word	0x08002fec
 8000b70:	200000c8 	.word	0x200000c8
 8000b74:	20000234 	.word	0x20000234
 8000b78:	20000238 	.word	0x20000238
						case 1000:
							PONG_TIME = 500;
 8000b7c:	4b8d      	ldr	r3, [pc, #564]	@ (8000db4 <Task_Game+0x540>)
 8000b7e:	f44f 72fa 	mov.w	r2, #500	@ 0x1f4
 8000b82:	601a      	str	r2, [r3, #0]
							printf("Selected 500\n");
 8000b84:	488c      	ldr	r0, [pc, #560]	@ (8000db8 <Task_Game+0x544>)
 8000b86:	f001 f8af 	bl	8001ce8 <puts>
							break;
 8000b8a:	bf00      	nop
					switch (PONG_TIME) {
 8000b8c:	e021      	b.n	8000bd2 <Task_Game+0x35e>
					}
				} else if (GPIO_PortInput(GPIOX) & 1 << (4 + 8)) { //check if start is pressed
 8000b8e:	488b      	ldr	r0, [pc, #556]	@ (8000dbc <Task_Game+0x548>)
 8000b90:	f000 fa73 	bl	800107a <GPIO_PortInput>
 8000b94:	4603      	mov	r3, r0
 8000b96:	f403 5380 	and.w	r3, r3, #4096	@ 0x1000
 8000b9a:	2b00      	cmp	r3, #0
 8000b9c:	f000 81f2 	beq.w	8000f84 <Task_Game+0x710>
					GPIO_PortOutput(GPIOX, 0x00); //clear board
 8000ba0:	2100      	movs	r1, #0
 8000ba2:	4886      	ldr	r0, [pc, #536]	@ (8000dbc <Task_Game+0x548>)
 8000ba4:	f000 fb3c 	bl	8001220 <GPIO_PortOutput>
					position = 1;
 8000ba8:	4b85      	ldr	r3, [pc, #532]	@ (8000dc0 <Task_Game+0x54c>)
 8000baa:	2201      	movs	r2, #1
 8000bac:	601a      	str	r2, [r3, #0]
					direction = 1;
 8000bae:	4b85      	ldr	r3, [pc, #532]	@ (8000dc4 <Task_Game+0x550>)
 8000bb0:	2201      	movs	r2, #1
 8000bb2:	601a      	str	r2, [r3, #0]
					score = 0;
 8000bb4:	4b84      	ldr	r3, [pc, #528]	@ (8000dc8 <Task_Game+0x554>)
 8000bb6:	2200      	movs	r2, #0
 8000bb8:	701a      	strb	r2, [r3, #0]
					state = GAMEPONG;
 8000bba:	4b84      	ldr	r3, [pc, #528]	@ (8000dcc <Task_Game+0x558>)
 8000bbc:	2203      	movs	r2, #3
 8000bbe:	701a      	strb	r2, [r3, #0]
					total_game_time = TimeNow();
 8000bc0:	f000 feda 	bl	8001978 <TimeNow>
 8000bc4:	4603      	mov	r3, r0
 8000bc6:	4a82      	ldr	r2, [pc, #520]	@ (8000dd0 <Task_Game+0x55c>)
 8000bc8:	6013      	str	r3, [r2, #0]
					printf("Started Game\n");
 8000bca:	4882      	ldr	r0, [pc, #520]	@ (8000dd4 <Task_Game+0x560>)
 8000bcc:	f001 f88c 	bl	8001ce8 <puts>
				}

				break;
 8000bd0:	e1d8      	b.n	8000f84 <Task_Game+0x710>
 8000bd2:	e1d7      	b.n	8000f84 <Task_Game+0x710>
			case GAMEPONG:

				if (TimePassed(game_time) > PONG_TIME) {
 8000bd4:	4b80      	ldr	r3, [pc, #512]	@ (8000dd8 <Task_Game+0x564>)
 8000bd6:	681b      	ldr	r3, [r3, #0]
 8000bd8:	4618      	mov	r0, r3
 8000bda:	f000 fed9 	bl	8001990 <TimePassed>
 8000bde:	4603      	mov	r3, r0
 8000be0:	4a74      	ldr	r2, [pc, #464]	@ (8000db4 <Task_Game+0x540>)
 8000be2:	6812      	ldr	r2, [r2, #0]
 8000be4:	4293      	cmp	r3, r2
 8000be6:	f240 81cf 	bls.w	8000f88 <Task_Game+0x714>
					if (position == 7 || position == 0)
 8000bea:	4b75      	ldr	r3, [pc, #468]	@ (8000dc0 <Task_Game+0x54c>)
 8000bec:	681b      	ldr	r3, [r3, #0]
 8000bee:	2b07      	cmp	r3, #7
 8000bf0:	d003      	beq.n	8000bfa <Task_Game+0x386>
 8000bf2:	4b73      	ldr	r3, [pc, #460]	@ (8000dc0 <Task_Game+0x54c>)
 8000bf4:	681b      	ldr	r3, [r3, #0]
 8000bf6:	2b00      	cmp	r3, #0
 8000bf8:	d102      	bne.n	8000c00 <Task_Game+0x38c>
						state = ENDPONG;
 8000bfa:	4b74      	ldr	r3, [pc, #464]	@ (8000dcc <Task_Game+0x558>)
 8000bfc:	2205      	movs	r2, #5
 8000bfe:	701a      	strb	r2, [r3, #0]
					if (position == 1 || position == 2)
 8000c00:	4b6f      	ldr	r3, [pc, #444]	@ (8000dc0 <Task_Game+0x54c>)
 8000c02:	681b      	ldr	r3, [r3, #0]
 8000c04:	2b01      	cmp	r3, #1
 8000c06:	d003      	beq.n	8000c10 <Task_Game+0x39c>
 8000c08:	4b6d      	ldr	r3, [pc, #436]	@ (8000dc0 <Task_Game+0x54c>)
 8000c0a:	681b      	ldr	r3, [r3, #0]
 8000c0c:	2b02      	cmp	r3, #2
 8000c0e:	d11a      	bne.n	8000c46 <Task_Game+0x3d2>
						if (GPIO_PortInput(GPIOX) & 1 << (1 + 8) || GPIO_PortInput(GPIOX) & 1 << (2 + 8) || GPIO_PortInput(GPIOX) & 1 << (0 + 8))
 8000c10:	486a      	ldr	r0, [pc, #424]	@ (8000dbc <Task_Game+0x548>)
 8000c12:	f000 fa32 	bl	800107a <GPIO_PortInput>
 8000c16:	4603      	mov	r3, r0
 8000c18:	f403 7300 	and.w	r3, r3, #512	@ 0x200
 8000c1c:	2b00      	cmp	r3, #0
 8000c1e:	d10f      	bne.n	8000c40 <Task_Game+0x3cc>
 8000c20:	4866      	ldr	r0, [pc, #408]	@ (8000dbc <Task_Game+0x548>)
 8000c22:	f000 fa2a 	bl	800107a <GPIO_PortInput>
 8000c26:	4603      	mov	r3, r0
 8000c28:	f403 6380 	and.w	r3, r3, #1024	@ 0x400
 8000c2c:	2b00      	cmp	r3, #0
 8000c2e:	d107      	bne.n	8000c40 <Task_Game+0x3cc>
 8000c30:	4862      	ldr	r0, [pc, #392]	@ (8000dbc <Task_Game+0x548>)
 8000c32:	f000 fa22 	bl	800107a <GPIO_PortInput>
 8000c36:	4603      	mov	r3, r0
 8000c38:	f403 7380 	and.w	r3, r3, #256	@ 0x100
 8000c3c:	2b00      	cmp	r3, #0
 8000c3e:	d002      	beq.n	8000c46 <Task_Game+0x3d2>
							direction = 1;
 8000c40:	4b60      	ldr	r3, [pc, #384]	@ (8000dc4 <Task_Game+0x550>)
 8000c42:	2201      	movs	r2, #1
 8000c44:	601a      	str	r2, [r3, #0]
					if (position == 5 || position == 6)
 8000c46:	4b5e      	ldr	r3, [pc, #376]	@ (8000dc0 <Task_Game+0x54c>)
 8000c48:	681b      	ldr	r3, [r3, #0]
 8000c4a:	2b05      	cmp	r3, #5
 8000c4c:	d003      	beq.n	8000c56 <Task_Game+0x3e2>
 8000c4e:	4b5c      	ldr	r3, [pc, #368]	@ (8000dc0 <Task_Game+0x54c>)
 8000c50:	681b      	ldr	r3, [r3, #0]
 8000c52:	2b06      	cmp	r3, #6
 8000c54:	d119      	bne.n	8000c8a <Task_Game+0x416>
						if (GPIO_PortInput(GPIOX) & 1 << (5 + 8) || GPIO_PortInput(GPIOX) & 1 << (6 + 8) || GPIO_PortInput(GPIOX) & 1 << (7 + 8))
 8000c56:	4859      	ldr	r0, [pc, #356]	@ (8000dbc <Task_Game+0x548>)
 8000c58:	f000 fa0f 	bl	800107a <GPIO_PortInput>
 8000c5c:	4603      	mov	r3, r0
 8000c5e:	f403 5300 	and.w	r3, r3, #8192	@ 0x2000
 8000c62:	2b00      	cmp	r3, #0
 8000c64:	d10e      	bne.n	8000c84 <Task_Game+0x410>
 8000c66:	4855      	ldr	r0, [pc, #340]	@ (8000dbc <Task_Game+0x548>)
 8000c68:	f000 fa07 	bl	800107a <GPIO_PortInput>
 8000c6c:	4603      	mov	r3, r0
 8000c6e:	f403 4380 	and.w	r3, r3, #16384	@ 0x4000
 8000c72:	2b00      	cmp	r3, #0
 8000c74:	d106      	bne.n	8000c84 <Task_Game+0x410>
 8000c76:	4851      	ldr	r0, [pc, #324]	@ (8000dbc <Task_Game+0x548>)
 8000c78:	f000 f9ff 	bl	800107a <GPIO_PortInput>
 8000c7c:	4603      	mov	r3, r0
 8000c7e:	b21b      	sxth	r3, r3
 8000c80:	2b00      	cmp	r3, #0
 8000c82:	da02      	bge.n	8000c8a <Task_Game+0x416>
							direction = 0;
 8000c84:	4b4f      	ldr	r3, [pc, #316]	@ (8000dc4 <Task_Game+0x550>)
 8000c86:	2200      	movs	r2, #0
 8000c88:	601a      	str	r2, [r3, #0]
					position += direction ? +1 : -1;
 8000c8a:	4b4e      	ldr	r3, [pc, #312]	@ (8000dc4 <Task_Game+0x550>)
 8000c8c:	681b      	ldr	r3, [r3, #0]
 8000c8e:	2b00      	cmp	r3, #0
 8000c90:	d001      	beq.n	8000c96 <Task_Game+0x422>
 8000c92:	2201      	movs	r2, #1
 8000c94:	e001      	b.n	8000c9a <Task_Game+0x426>
 8000c96:	f04f 32ff 	mov.w	r2, #4294967295
 8000c9a:	4b49      	ldr	r3, [pc, #292]	@ (8000dc0 <Task_Game+0x54c>)
 8000c9c:	681b      	ldr	r3, [r3, #0]
 8000c9e:	4413      	add	r3, r2
 8000ca0:	4a47      	ldr	r2, [pc, #284]	@ (8000dc0 <Task_Game+0x54c>)
 8000ca2:	6013      	str	r3, [r2, #0]
					GPIO_PortOutput(GPIOX, 1 << position);
 8000ca4:	4b46      	ldr	r3, [pc, #280]	@ (8000dc0 <Task_Game+0x54c>)
 8000ca6:	681b      	ldr	r3, [r3, #0]
 8000ca8:	2201      	movs	r2, #1
 8000caa:	fa02 f303 	lsl.w	r3, r2, r3
 8000cae:	b29b      	uxth	r3, r3
 8000cb0:	4619      	mov	r1, r3
 8000cb2:	4842      	ldr	r0, [pc, #264]	@ (8000dbc <Task_Game+0x548>)
 8000cb4:	f000 fab4 	bl	8001220 <GPIO_PortOutput>
					game_time = TimeNow();
 8000cb8:	f000 fe5e 	bl	8001978 <TimeNow>
 8000cbc:	4603      	mov	r3, r0
 8000cbe:	4a46      	ldr	r2, [pc, #280]	@ (8000dd8 <Task_Game+0x564>)
 8000cc0:	6013      	str	r3, [r2, #0]
				}

				break;
 8000cc2:	e161      	b.n	8000f88 <Task_Game+0x714>
			case GAMEMOLE:
				if (TimePassed(total_game_time) < TOTAL_GAME_TIME) {
 8000cc4:	4b42      	ldr	r3, [pc, #264]	@ (8000dd0 <Task_Game+0x55c>)
 8000cc6:	681b      	ldr	r3, [r3, #0]
 8000cc8:	4618      	mov	r0, r3
 8000cca:	f000 fe61 	bl	8001990 <TimePassed>
 8000cce:	4603      	mov	r3, r0
 8000cd0:	f242 720f 	movw	r2, #9999	@ 0x270f
 8000cd4:	4293      	cmp	r3, r2
 8000cd6:	f200 8123 	bhi.w	8000f20 <Task_Game+0x6ac>
					//find number of moles active
					mole_exists = 0;
 8000cda:	4b40      	ldr	r3, [pc, #256]	@ (8000ddc <Task_Game+0x568>)
 8000cdc:	2200      	movs	r2, #0
 8000cde:	601a      	str	r2, [r3, #0]
					moles_temp = moles;
 8000ce0:	4b3f      	ldr	r3, [pc, #252]	@ (8000de0 <Task_Game+0x56c>)
 8000ce2:	781b      	ldrb	r3, [r3, #0]
 8000ce4:	461a      	mov	r2, r3
 8000ce6:	4b3f      	ldr	r3, [pc, #252]	@ (8000de4 <Task_Game+0x570>)
 8000ce8:	601a      	str	r2, [r3, #0]
					while (moles_temp) {
 8000cea:	e00d      	b.n	8000d08 <Task_Game+0x494>
						mole_exists += moles_temp & 1;
 8000cec:	4b3d      	ldr	r3, [pc, #244]	@ (8000de4 <Task_Game+0x570>)
 8000cee:	681b      	ldr	r3, [r3, #0]
 8000cf0:	f003 0201 	and.w	r2, r3, #1
 8000cf4:	4b39      	ldr	r3, [pc, #228]	@ (8000ddc <Task_Game+0x568>)
 8000cf6:	681b      	ldr	r3, [r3, #0]
 8000cf8:	4413      	add	r3, r2
 8000cfa:	4a38      	ldr	r2, [pc, #224]	@ (8000ddc <Task_Game+0x568>)
 8000cfc:	6013      	str	r3, [r2, #0]
						moles_temp >>= 1;
 8000cfe:	4b39      	ldr	r3, [pc, #228]	@ (8000de4 <Task_Game+0x570>)
 8000d00:	681b      	ldr	r3, [r3, #0]
 8000d02:	105b      	asrs	r3, r3, #1
 8000d04:	4a37      	ldr	r2, [pc, #220]	@ (8000de4 <Task_Game+0x570>)
 8000d06:	6013      	str	r3, [r2, #0]
					while (moles_temp) {
 8000d08:	4b36      	ldr	r3, [pc, #216]	@ (8000de4 <Task_Game+0x570>)
 8000d0a:	681b      	ldr	r3, [r3, #0]
 8000d0c:	2b00      	cmp	r3, #0
 8000d0e:	d1ed      	bne.n	8000cec <Task_Game+0x478>
					}

					//maybe generate a mole
					if (mole_exists < MAX_MOLES) { //maybe generate mole
 8000d10:	4b32      	ldr	r3, [pc, #200]	@ (8000ddc <Task_Game+0x568>)
 8000d12:	681b      	ldr	r3, [r3, #0]
 8000d14:	2b05      	cmp	r3, #5
 8000d16:	dc4a      	bgt.n	8000dae <Task_Game+0x53a>
						if (TimePassed(game_time) >= MOLE_TIME){ //only runs every MOLE_TIME ms
 8000d18:	4b2f      	ldr	r3, [pc, #188]	@ (8000dd8 <Task_Game+0x564>)
 8000d1a:	681b      	ldr	r3, [r3, #0]
 8000d1c:	4618      	mov	r0, r3
 8000d1e:	f000 fe37 	bl	8001990 <TimePassed>
 8000d22:	4603      	mov	r3, r0
 8000d24:	4a30      	ldr	r2, [pc, #192]	@ (8000de8 <Task_Game+0x574>)
 8000d26:	6812      	ldr	r2, [r2, #0]
 8000d28:	4293      	cmp	r3, r2
 8000d2a:	d340      	bcc.n	8000dae <Task_Game+0x53a>
							int randVal = rand() % MOLE_CHANCE;
 8000d2c:	f000 fe74 	bl	8001a18 <rand>
 8000d30:	4603      	mov	r3, r0
 8000d32:	425a      	negs	r2, r3
 8000d34:	f003 0307 	and.w	r3, r3, #7
 8000d38:	f002 0207 	and.w	r2, r2, #7
 8000d3c:	bf58      	it	pl
 8000d3e:	4253      	negpl	r3, r2
 8000d40:	60bb      	str	r3, [r7, #8]
							if (randVal) { //to randomize moles appearing
 8000d42:	68bb      	ldr	r3, [r7, #8]
 8000d44:	2b00      	cmp	r3, #0
 8000d46:	d02d      	beq.n	8000da4 <Task_Game+0x530>
								mole_location = rand() % 8;
 8000d48:	f000 fe66 	bl	8001a18 <rand>
 8000d4c:	4603      	mov	r3, r0
 8000d4e:	425a      	negs	r2, r3
 8000d50:	f003 0307 	and.w	r3, r3, #7
 8000d54:	f002 0207 	and.w	r2, r2, #7
 8000d58:	bf58      	it	pl
 8000d5a:	4253      	negpl	r3, r2
 8000d5c:	4a23      	ldr	r2, [pc, #140]	@ (8000dec <Task_Game+0x578>)
 8000d5e:	6013      	str	r3, [r2, #0]
								moles |= 1 << mole_location;
 8000d60:	4b22      	ldr	r3, [pc, #136]	@ (8000dec <Task_Game+0x578>)
 8000d62:	681b      	ldr	r3, [r3, #0]
 8000d64:	2201      	movs	r2, #1
 8000d66:	fa02 f303 	lsl.w	r3, r2, r3
 8000d6a:	b25a      	sxtb	r2, r3
 8000d6c:	4b1c      	ldr	r3, [pc, #112]	@ (8000de0 <Task_Game+0x56c>)
 8000d6e:	781b      	ldrb	r3, [r3, #0]
 8000d70:	b25b      	sxtb	r3, r3
 8000d72:	4313      	orrs	r3, r2
 8000d74:	b25b      	sxtb	r3, r3
 8000d76:	b2da      	uxtb	r2, r3
 8000d78:	4b19      	ldr	r3, [pc, #100]	@ (8000de0 <Task_Game+0x56c>)
 8000d7a:	701a      	strb	r2, [r3, #0]
								GPIO_PortOutput(GPIOX, moles); // GENERATE the mole
 8000d7c:	4b18      	ldr	r3, [pc, #96]	@ (8000de0 <Task_Game+0x56c>)
 8000d7e:	781b      	ldrb	r3, [r3, #0]
 8000d80:	4619      	mov	r1, r3
 8000d82:	480e      	ldr	r0, [pc, #56]	@ (8000dbc <Task_Game+0x548>)
 8000d84:	f000 fa4c 	bl	8001220 <GPIO_PortOutput>
								mole_exists += 1;
 8000d88:	4b14      	ldr	r3, [pc, #80]	@ (8000ddc <Task_Game+0x568>)
 8000d8a:	681b      	ldr	r3, [r3, #0]
 8000d8c:	3301      	adds	r3, #1
 8000d8e:	4a13      	ldr	r2, [pc, #76]	@ (8000ddc <Task_Game+0x568>)
 8000d90:	6013      	str	r3, [r2, #0]
								mole_generate_time[mole_location] = TimeNow();
 8000d92:	f000 fdf1 	bl	8001978 <TimeNow>
 8000d96:	4602      	mov	r2, r0
 8000d98:	4b14      	ldr	r3, [pc, #80]	@ (8000dec <Task_Game+0x578>)
 8000d9a:	681b      	ldr	r3, [r3, #0]
 8000d9c:	4611      	mov	r1, r2
 8000d9e:	4a14      	ldr	r2, [pc, #80]	@ (8000df0 <Task_Game+0x57c>)
 8000da0:	f842 1023 	str.w	r1, [r2, r3, lsl #2]
							}
							game_time = TimeNow();
 8000da4:	f000 fde8 	bl	8001978 <TimeNow>
 8000da8:	4603      	mov	r3, r0
 8000daa:	4a0b      	ldr	r2, [pc, #44]	@ (8000dd8 <Task_Game+0x564>)
 8000dac:	6013      	str	r3, [r2, #0]
						}
					}

					//check for each mole if either it needs to be despawned or killed due to wacking
					for (int i = 0; i <= 7; i++) {
 8000dae:	2300      	movs	r3, #0
 8000db0:	60fb      	str	r3, [r7, #12]
 8000db2:	e0b0      	b.n	8000f16 <Task_Game+0x6a2>
 8000db4:	200000c8 	.word	0x200000c8
 8000db8:	08002fcc 	.word	0x08002fcc
 8000dbc:	200000cc 	.word	0x200000cc
 8000dc0:	20000234 	.word	0x20000234
 8000dc4:	20000238 	.word	0x20000238
 8000dc8:	2000022c 	.word	0x2000022c
 8000dcc:	20000240 	.word	0x20000240
 8000dd0:	2000021c 	.word	0x2000021c
 8000dd4:	08002fdc 	.word	0x08002fdc
 8000dd8:	20000214 	.word	0x20000214
 8000ddc:	200001e8 	.word	0x200001e8
 8000de0:	20000210 	.word	0x20000210
 8000de4:	20000244 	.word	0x20000244
 8000de8:	200000c4 	.word	0x200000c4
 8000dec:	2000020c 	.word	0x2000020c
 8000df0:	200001ec 	.word	0x200001ec
						int current_mole_exists = (moles & 1 << (i)) >> i;
 8000df4:	4b69      	ldr	r3, [pc, #420]	@ (8000f9c <Task_Game+0x728>)
 8000df6:	781b      	ldrb	r3, [r3, #0]
 8000df8:	4619      	mov	r1, r3
 8000dfa:	2201      	movs	r2, #1
 8000dfc:	68fb      	ldr	r3, [r7, #12]
 8000dfe:	fa02 f303 	lsl.w	r3, r2, r3
 8000e02:	ea01 0203 	and.w	r2, r1, r3
 8000e06:	68fb      	ldr	r3, [r7, #12]
 8000e08:	fa42 f303 	asr.w	r3, r2, r3
 8000e0c:	607b      	str	r3, [r7, #4]
						if (TimePassed(mole_generate_time[i]) > MOLE_TIMEOUT && current_mole_exists) { //despawn the mole
 8000e0e:	4a64      	ldr	r2, [pc, #400]	@ (8000fa0 <Task_Game+0x72c>)
 8000e10:	68fb      	ldr	r3, [r7, #12]
 8000e12:	f852 3023 	ldr.w	r3, [r2, r3, lsl #2]
 8000e16:	4618      	mov	r0, r3
 8000e18:	f000 fdba 	bl	8001990 <TimePassed>
 8000e1c:	4603      	mov	r3, r0
 8000e1e:	4a61      	ldr	r2, [pc, #388]	@ (8000fa4 <Task_Game+0x730>)
 8000e20:	6812      	ldr	r2, [r2, #0]
 8000e22:	4293      	cmp	r3, r2
 8000e24:	d929      	bls.n	8000e7a <Task_Game+0x606>
 8000e26:	687b      	ldr	r3, [r7, #4]
 8000e28:	2b00      	cmp	r3, #0
 8000e2a:	d026      	beq.n	8000e7a <Task_Game+0x606>
							if (score > 0)
 8000e2c:	4b5e      	ldr	r3, [pc, #376]	@ (8000fa8 <Task_Game+0x734>)
 8000e2e:	781b      	ldrb	r3, [r3, #0]
 8000e30:	2b00      	cmp	r3, #0
 8000e32:	d005      	beq.n	8000e40 <Task_Game+0x5cc>
								score--;
 8000e34:	4b5c      	ldr	r3, [pc, #368]	@ (8000fa8 <Task_Game+0x734>)
 8000e36:	781b      	ldrb	r3, [r3, #0]
 8000e38:	3b01      	subs	r3, #1
 8000e3a:	b2da      	uxtb	r2, r3
 8000e3c:	4b5a      	ldr	r3, [pc, #360]	@ (8000fa8 <Task_Game+0x734>)
 8000e3e:	701a      	strb	r2, [r3, #0]
							printf("deapswning mole\n");
 8000e40:	485a      	ldr	r0, [pc, #360]	@ (8000fac <Task_Game+0x738>)
 8000e42:	f000 ff51 	bl	8001ce8 <puts>
							mole_exists -= 1;
 8000e46:	4b5a      	ldr	r3, [pc, #360]	@ (8000fb0 <Task_Game+0x73c>)
 8000e48:	681b      	ldr	r3, [r3, #0]
 8000e4a:	3b01      	subs	r3, #1
 8000e4c:	4a58      	ldr	r2, [pc, #352]	@ (8000fb0 <Task_Game+0x73c>)
 8000e4e:	6013      	str	r3, [r2, #0]
							moles &= ~(1 << i); //DEWPAWN the mole
 8000e50:	2201      	movs	r2, #1
 8000e52:	68fb      	ldr	r3, [r7, #12]
 8000e54:	fa02 f303 	lsl.w	r3, r2, r3
 8000e58:	b25b      	sxtb	r3, r3
 8000e5a:	43db      	mvns	r3, r3
 8000e5c:	b25a      	sxtb	r2, r3
 8000e5e:	4b4f      	ldr	r3, [pc, #316]	@ (8000f9c <Task_Game+0x728>)
 8000e60:	781b      	ldrb	r3, [r3, #0]
 8000e62:	b25b      	sxtb	r3, r3
 8000e64:	4013      	ands	r3, r2
 8000e66:	b25b      	sxtb	r3, r3
 8000e68:	b2da      	uxtb	r2, r3
 8000e6a:	4b4c      	ldr	r3, [pc, #304]	@ (8000f9c <Task_Game+0x728>)
 8000e6c:	701a      	strb	r2, [r3, #0]
							GPIO_PortOutput(GPIOX, moles);
 8000e6e:	4b4b      	ldr	r3, [pc, #300]	@ (8000f9c <Task_Game+0x728>)
 8000e70:	781b      	ldrb	r3, [r3, #0]
 8000e72:	4619      	mov	r1, r3
 8000e74:	484f      	ldr	r0, [pc, #316]	@ (8000fb4 <Task_Game+0x740>)
 8000e76:	f000 f9d3 	bl	8001220 <GPIO_PortOutput>
						}
						if ((GPIO_PortInput(GPIOX) & 1 << (i + 8)) && (TimePassed(button_debouncing) > 200)) { //check if button beside LED is pressed
 8000e7a:	484e      	ldr	r0, [pc, #312]	@ (8000fb4 <Task_Game+0x740>)
 8000e7c:	f000 f8fd 	bl	800107a <GPIO_PortInput>
 8000e80:	4603      	mov	r3, r0
 8000e82:	461a      	mov	r2, r3
 8000e84:	68fb      	ldr	r3, [r7, #12]
 8000e86:	3308      	adds	r3, #8
 8000e88:	fa42 f303 	asr.w	r3, r2, r3
 8000e8c:	f003 0301 	and.w	r3, r3, #1
 8000e90:	2b00      	cmp	r3, #0
 8000e92:	d03d      	beq.n	8000f10 <Task_Game+0x69c>
 8000e94:	4b48      	ldr	r3, [pc, #288]	@ (8000fb8 <Task_Game+0x744>)
 8000e96:	681b      	ldr	r3, [r3, #0]
 8000e98:	4618      	mov	r0, r3
 8000e9a:	f000 fd79 	bl	8001990 <TimePassed>
 8000e9e:	4603      	mov	r3, r0
 8000ea0:	2bc8      	cmp	r3, #200	@ 0xc8
 8000ea2:	d935      	bls.n	8000f10 <Task_Game+0x69c>
							printf("button killing mole\n");
 8000ea4:	4845      	ldr	r0, [pc, #276]	@ (8000fbc <Task_Game+0x748>)
 8000ea6:	f000 ff1f 	bl	8001ce8 <puts>
							button_debouncing = TimeNow();
 8000eaa:	f000 fd65 	bl	8001978 <TimeNow>
 8000eae:	4603      	mov	r3, r0
 8000eb0:	4a41      	ldr	r2, [pc, #260]	@ (8000fb8 <Task_Game+0x744>)
 8000eb2:	6013      	str	r3, [r2, #0]
							moles &= ~(1 << i);
 8000eb4:	2201      	movs	r2, #1
 8000eb6:	68fb      	ldr	r3, [r7, #12]
 8000eb8:	fa02 f303 	lsl.w	r3, r2, r3
 8000ebc:	b25b      	sxtb	r3, r3
 8000ebe:	43db      	mvns	r3, r3
 8000ec0:	b25a      	sxtb	r2, r3
 8000ec2:	4b36      	ldr	r3, [pc, #216]	@ (8000f9c <Task_Game+0x728>)
 8000ec4:	781b      	ldrb	r3, [r3, #0]
 8000ec6:	b25b      	sxtb	r3, r3
 8000ec8:	4013      	ands	r3, r2
 8000eca:	b25b      	sxtb	r3, r3
 8000ecc:	b2da      	uxtb	r2, r3
 8000ece:	4b33      	ldr	r3, [pc, #204]	@ (8000f9c <Task_Game+0x728>)
 8000ed0:	701a      	strb	r2, [r3, #0]
							GPIO_PortOutput(GPIOX, moles); // KILL the mole
 8000ed2:	4b32      	ldr	r3, [pc, #200]	@ (8000f9c <Task_Game+0x728>)
 8000ed4:	781b      	ldrb	r3, [r3, #0]
 8000ed6:	4619      	mov	r1, r3
 8000ed8:	4836      	ldr	r0, [pc, #216]	@ (8000fb4 <Task_Game+0x740>)
 8000eda:	f000 f9a1 	bl	8001220 <GPIO_PortOutput>
							mole_exists -= 1;
 8000ede:	4b34      	ldr	r3, [pc, #208]	@ (8000fb0 <Task_Game+0x73c>)
 8000ee0:	681b      	ldr	r3, [r3, #0]
 8000ee2:	3b01      	subs	r3, #1
 8000ee4:	4a32      	ldr	r2, [pc, #200]	@ (8000fb0 <Task_Game+0x73c>)
 8000ee6:	6013      	str	r3, [r2, #0]
							if (current_mole_exists)
 8000ee8:	687b      	ldr	r3, [r7, #4]
 8000eea:	2b00      	cmp	r3, #0
 8000eec:	d006      	beq.n	8000efc <Task_Game+0x688>
								score++;
 8000eee:	4b2e      	ldr	r3, [pc, #184]	@ (8000fa8 <Task_Game+0x734>)
 8000ef0:	781b      	ldrb	r3, [r3, #0]
 8000ef2:	3301      	adds	r3, #1
 8000ef4:	b2da      	uxtb	r2, r3
 8000ef6:	4b2c      	ldr	r3, [pc, #176]	@ (8000fa8 <Task_Game+0x734>)
 8000ef8:	701a      	strb	r2, [r3, #0]
 8000efa:	e009      	b.n	8000f10 <Task_Game+0x69c>
							else
								if (score > 0)
 8000efc:	4b2a      	ldr	r3, [pc, #168]	@ (8000fa8 <Task_Game+0x734>)
 8000efe:	781b      	ldrb	r3, [r3, #0]
 8000f00:	2b00      	cmp	r3, #0
 8000f02:	d005      	beq.n	8000f10 <Task_Game+0x69c>
									score--;
 8000f04:	4b28      	ldr	r3, [pc, #160]	@ (8000fa8 <Task_Game+0x734>)
 8000f06:	781b      	ldrb	r3, [r3, #0]
 8000f08:	3b01      	subs	r3, #1
 8000f0a:	b2da      	uxtb	r2, r3
 8000f0c:	4b26      	ldr	r3, [pc, #152]	@ (8000fa8 <Task_Game+0x734>)
 8000f0e:	701a      	strb	r2, [r3, #0]
					for (int i = 0; i <= 7; i++) {
 8000f10:	68fb      	ldr	r3, [r7, #12]
 8000f12:	3301      	adds	r3, #1
 8000f14:	60fb      	str	r3, [r7, #12]
 8000f16:	68fb      	ldr	r3, [r7, #12]
 8000f18:	2b07      	cmp	r3, #7
 8000f1a:	f77f af6b 	ble.w	8000df4 <Task_Game+0x580>
				}
				else {
					state = ENDMOLE;
				}

				break;
 8000f1e:	e038      	b.n	8000f92 <Task_Game+0x71e>
					state = ENDMOLE;
 8000f20:	4b27      	ldr	r3, [pc, #156]	@ (8000fc0 <Task_Game+0x74c>)
 8000f22:	2204      	movs	r2, #4
 8000f24:	701a      	strb	r2, [r3, #0]
				break;
 8000f26:	e034      	b.n	8000f92 <Task_Game+0x71e>
			case ENDMOLE:
				//output score
				GPIO_PortOutput(GPIOX, score);
 8000f28:	4b1f      	ldr	r3, [pc, #124]	@ (8000fa8 <Task_Game+0x734>)
 8000f2a:	781b      	ldrb	r3, [r3, #0]
 8000f2c:	4619      	mov	r1, r3
 8000f2e:	4821      	ldr	r0, [pc, #132]	@ (8000fb4 <Task_Game+0x740>)
 8000f30:	f000 f976 	bl	8001220 <GPIO_PortOutput>
				DisplayPrint(1, "Game Complete");
 8000f34:	4923      	ldr	r1, [pc, #140]	@ (8000fc4 <Task_Game+0x750>)
 8000f36:	2001      	movs	r0, #1
 8000f38:	f7ff fbcc 	bl	80006d4 <DisplayPrint>

				//check if start button is pressed
					if (GPIO_PortInput(GPIOX) & 1 << (3 + 8)) { //check if button is pressed
 8000f3c:	481d      	ldr	r0, [pc, #116]	@ (8000fb4 <Task_Game+0x740>)
 8000f3e:	f000 f89c 	bl	800107a <GPIO_PortInput>
 8000f42:	4603      	mov	r3, r0
 8000f44:	f403 6300 	and.w	r3, r3, #2048	@ 0x800
 8000f48:	2b00      	cmp	r3, #0
 8000f4a:	d01f      	beq.n	8000f8c <Task_Game+0x718>
						state = TITLEMOLE;
 8000f4c:	4b1c      	ldr	r3, [pc, #112]	@ (8000fc0 <Task_Game+0x74c>)
 8000f4e:	2200      	movs	r2, #0
 8000f50:	701a      	strb	r2, [r3, #0]
					}

				break;
 8000f52:	e01b      	b.n	8000f8c <Task_Game+0x718>
			case ENDPONG:
				DisplayPrint(1, "Game Complete");
 8000f54:	491b      	ldr	r1, [pc, #108]	@ (8000fc4 <Task_Game+0x750>)
 8000f56:	2001      	movs	r0, #1
 8000f58:	f7ff fbbc 	bl	80006d4 <DisplayPrint>
				//check if start button is pressed
				if (GPIO_PortInput(GPIOX) & 1 << (3 + 8)) { //check if button is pressed
 8000f5c:	4815      	ldr	r0, [pc, #84]	@ (8000fb4 <Task_Game+0x740>)
 8000f5e:	f000 f88c 	bl	800107a <GPIO_PortInput>
 8000f62:	4603      	mov	r3, r0
 8000f64:	f403 6300 	and.w	r3, r3, #2048	@ 0x800
 8000f68:	2b00      	cmp	r3, #0
 8000f6a:	d011      	beq.n	8000f90 <Task_Game+0x71c>
					state = TITLEPONG;
 8000f6c:	4b14      	ldr	r3, [pc, #80]	@ (8000fc0 <Task_Game+0x74c>)
 8000f6e:	2201      	movs	r2, #1
 8000f70:	701a      	strb	r2, [r3, #0]
					position = 0;
 8000f72:	4b15      	ldr	r3, [pc, #84]	@ (8000fc8 <Task_Game+0x754>)
 8000f74:	2200      	movs	r2, #0
 8000f76:	601a      	str	r2, [r3, #0]
					direction = 0;
 8000f78:	4b14      	ldr	r3, [pc, #80]	@ (8000fcc <Task_Game+0x758>)
 8000f7a:	2200      	movs	r2, #0
 8000f7c:	601a      	str	r2, [r3, #0]
				}
				break;
 8000f7e:	e007      	b.n	8000f90 <Task_Game+0x71c>
				break;
 8000f80:	bf00      	nop
 8000f82:	e006      	b.n	8000f92 <Task_Game+0x71e>
				break;
 8000f84:	bf00      	nop
 8000f86:	e004      	b.n	8000f92 <Task_Game+0x71e>
				break;
 8000f88:	bf00      	nop
 8000f8a:	e002      	b.n	8000f92 <Task_Game+0x71e>
				break;
 8000f8c:	bf00      	nop
 8000f8e:	e000      	b.n	8000f92 <Task_Game+0x71e>
				break;
 8000f90:	bf00      	nop

	}

}
 8000f92:	bf00      	nop
 8000f94:	3710      	adds	r7, #16
 8000f96:	46bd      	mov	sp, r7
 8000f98:	bd80      	pop	{r7, pc}
 8000f9a:	bf00      	nop
 8000f9c:	20000210 	.word	0x20000210
 8000fa0:	200001ec 	.word	0x200001ec
 8000fa4:	200001e4 	.word	0x200001e4
 8000fa8:	2000022c 	.word	0x2000022c
 8000fac:	08002ff8 	.word	0x08002ff8
 8000fb0:	200001e8 	.word	0x200001e8
 8000fb4:	200000cc 	.word	0x200000cc
 8000fb8:	20000230 	.word	0x20000230
 8000fbc:	08003008 	.word	0x08003008
 8000fc0:	20000240 	.word	0x20000240
 8000fc4:	0800301c 	.word	0x0800301c
 8000fc8:	20000234 	.word	0x20000234
 8000fcc:	20000238 	.word	0x20000238

08000fd0 <GPIO_Enable>:
// --------------------------------------------------------
// Initialization
// --------------------------------------------------------

// Enable the GPIO port peripheral clock for the specified pin
void GPIO_Enable(Pin_t pin) { //WORKING
 8000fd0:	b580      	push	{r7, lr}
 8000fd2:	b082      	sub	sp, #8
 8000fd4:	af00      	add	r7, sp, #0
 8000fd6:	463b      	mov	r3, r7
 8000fd8:	e883 0003 	stmia.w	r3, {r0, r1}
	GPIO_PortEnable(pin.port);
 8000fdc:	683b      	ldr	r3, [r7, #0]
 8000fde:	4618      	mov	r0, r3
 8000fe0:	f000 f804 	bl	8000fec <GPIO_PortEnable>
}
 8000fe4:	bf00      	nop
 8000fe6:	3708      	adds	r7, #8
 8000fe8:	46bd      	mov	sp, r7
 8000fea:	bd80      	pop	{r7, pc}

08000fec <GPIO_PortEnable>:

void GPIO_PortEnable (GPIO_TypeDef *port) {
 8000fec:	b580      	push	{r7, lr}
 8000fee:	b084      	sub	sp, #16
 8000ff0:	af02      	add	r7, sp, #8
 8000ff2:	6078      	str	r0, [r7, #4]
	if (port == GPIOX)
 8000ff4:	687b      	ldr	r3, [r7, #4]
 8000ff6:	4a0d      	ldr	r2, [pc, #52]	@ (800102c <GPIO_PortEnable+0x40>)
 8000ff8:	4293      	cmp	r3, r2
 8000ffa:	d106      	bne.n	800100a <GPIO_PortEnable+0x1e>
			I2C_Enable(LeafyI2C);
 8000ffc:	4b0c      	ldr	r3, [pc, #48]	@ (8001030 <GPIO_PortEnable+0x44>)
 8000ffe:	691a      	ldr	r2, [r3, #16]
 8001000:	9200      	str	r2, [sp, #0]
 8001002:	cb0f      	ldmia	r3, {r0, r1, r2, r3}
 8001004:	f000 fa7a 	bl	80014fc <I2C_Enable>
	else
		RCC->AHB2ENR |= (RCC_AHB2ENR_GPIOAEN << GPIO_PORT_NUM(port)); //shifts left by the number
}
 8001008:	e00b      	b.n	8001022 <GPIO_PortEnable+0x36>
		RCC->AHB2ENR |= (RCC_AHB2ENR_GPIOAEN << GPIO_PORT_NUM(port)); //shifts left by the number
 800100a:	4b0a      	ldr	r3, [pc, #40]	@ (8001034 <GPIO_PortEnable+0x48>)
 800100c:	6cda      	ldr	r2, [r3, #76]	@ 0x4c
 800100e:	687b      	ldr	r3, [r7, #4]
 8001010:	f403 437c 	and.w	r3, r3, #64512	@ 0xfc00
 8001014:	0a9b      	lsrs	r3, r3, #10
 8001016:	2101      	movs	r1, #1
 8001018:	fa01 f303 	lsl.w	r3, r1, r3
 800101c:	4905      	ldr	r1, [pc, #20]	@ (8001034 <GPIO_PortEnable+0x48>)
 800101e:	4313      	orrs	r3, r2
 8001020:	64cb      	str	r3, [r1, #76]	@ 0x4c
}
 8001022:	bf00      	nop
 8001024:	3708      	adds	r7, #8
 8001026:	46bd      	mov	sp, r7
 8001028:	bd80      	pop	{r7, pc}
 800102a:	bf00      	nop
 800102c:	200000cc 	.word	0x200000cc
 8001030:	20000134 	.word	0x20000134
 8001034:	40021000 	.word	0x40021000

08001038 <GPIO_Mode>:

// Set the operating mode of a GPIO pin:
// Input (IN), Output (OUT), Alternate Function (AF), or Analog (ANA)
void GPIO_Mode(Pin_t pin, PinMode_t mode) { //BROKEN
 8001038:	b480      	push	{r7}
 800103a:	b085      	sub	sp, #20
 800103c:	af00      	add	r7, sp, #0
 800103e:	f107 0308 	add.w	r3, r7, #8
 8001042:	e883 0003 	stmia.w	r3, {r0, r1}
 8001046:	4613      	mov	r3, r2
 8001048:	71fb      	strb	r3, [r7, #7]
	pin.port->MODER = (pin.port->MODER & ~(0b11 << 2*pin.bit)) | (mode << 2*pin.bit);
 800104a:	68bb      	ldr	r3, [r7, #8]
 800104c:	681b      	ldr	r3, [r3, #0]
 800104e:	68fa      	ldr	r2, [r7, #12]
 8001050:	0052      	lsls	r2, r2, #1
 8001052:	2103      	movs	r1, #3
 8001054:	fa01 f202 	lsl.w	r2, r1, r2
 8001058:	43d2      	mvns	r2, r2
 800105a:	401a      	ands	r2, r3
 800105c:	79f9      	ldrb	r1, [r7, #7]
 800105e:	68fb      	ldr	r3, [r7, #12]
 8001060:	005b      	lsls	r3, r3, #1
 8001062:	fa01 f303 	lsl.w	r3, r1, r3
 8001066:	4619      	mov	r1, r3
 8001068:	68bb      	ldr	r3, [r7, #8]
 800106a:	430a      	orrs	r2, r1
 800106c:	601a      	str	r2, [r3, #0]

}
 800106e:	bf00      	nop
 8001070:	3714      	adds	r7, #20
 8001072:	46bd      	mov	sp, r7
 8001074:	f85d 7b04 	ldr.w	r7, [sp], #4
 8001078:	4770      	bx	lr

0800107a <GPIO_PortInput>:

uint16_t GPIO_PortInput(GPIO_TypeDef *port) {
 800107a:	b480      	push	{r7}
 800107c:	b083      	sub	sp, #12
 800107e:	af00      	add	r7, sp, #0
 8001080:	6078      	str	r0, [r7, #4]
	return port->IDR;
 8001082:	687b      	ldr	r3, [r7, #4]
 8001084:	691b      	ldr	r3, [r3, #16]
 8001086:	b29b      	uxth	r3, r3
}
 8001088:	4618      	mov	r0, r3
 800108a:	370c      	adds	r7, #12
 800108c:	46bd      	mov	sp, r7
 800108e:	f85d 7b04 	ldr.w	r7, [sp], #4
 8001092:	4770      	bx	lr

08001094 <GPIO_Config>:

//configures pin - for i2c we need mode as 10, pupd at 00, speed at 0, and otype 0.
// takes in the pin to work with, the otype pin type, the ospeed pinspeed, and the pupd.
// set to alternate function (af) mode
void GPIO_Config (Pin_t pin, PinType_t ot, PinSpeed_t osp, PinPUPD_t pupd) {
 8001094:	b490      	push	{r4, r7}
 8001096:	b084      	sub	sp, #16
 8001098:	af00      	add	r7, sp, #0
 800109a:	f107 0408 	add.w	r4, r7, #8
 800109e:	e884 0003 	stmia.w	r4, {r0, r1}
 80010a2:	4611      	mov	r1, r2
 80010a4:	461a      	mov	r2, r3
 80010a6:	460b      	mov	r3, r1
 80010a8:	71fb      	strb	r3, [r7, #7]
 80010aa:	4613      	mov	r3, r2
 80010ac:	71bb      	strb	r3, [r7, #6]
	pin.port->OTYPER = (pin.port->OTYPER & ~(0b01 << 1*pin.bit)) | (ot << pin.bit); //sets the port output type reg
 80010ae:	68bb      	ldr	r3, [r7, #8]
 80010b0:	685b      	ldr	r3, [r3, #4]
 80010b2:	68fa      	ldr	r2, [r7, #12]
 80010b4:	2101      	movs	r1, #1
 80010b6:	fa01 f202 	lsl.w	r2, r1, r2
 80010ba:	43d2      	mvns	r2, r2
 80010bc:	401a      	ands	r2, r3
 80010be:	79f9      	ldrb	r1, [r7, #7]
 80010c0:	68fb      	ldr	r3, [r7, #12]
 80010c2:	fa01 f303 	lsl.w	r3, r1, r3
 80010c6:	4619      	mov	r1, r3
 80010c8:	68bb      	ldr	r3, [r7, #8]
 80010ca:	430a      	orrs	r2, r1
 80010cc:	605a      	str	r2, [r3, #4]
	pin.port->OSPEEDR = (pin.port->OSPEEDR & ~(0b11 << 2*pin.bit)) | (osp << 2*pin.bit); //sets the pin speed reg
 80010ce:	68bb      	ldr	r3, [r7, #8]
 80010d0:	689b      	ldr	r3, [r3, #8]
 80010d2:	68fa      	ldr	r2, [r7, #12]
 80010d4:	0052      	lsls	r2, r2, #1
 80010d6:	2103      	movs	r1, #3
 80010d8:	fa01 f202 	lsl.w	r2, r1, r2
 80010dc:	43d2      	mvns	r2, r2
 80010de:	401a      	ands	r2, r3
 80010e0:	79b9      	ldrb	r1, [r7, #6]
 80010e2:	68fb      	ldr	r3, [r7, #12]
 80010e4:	005b      	lsls	r3, r3, #1
 80010e6:	fa01 f303 	lsl.w	r3, r1, r3
 80010ea:	4619      	mov	r1, r3
 80010ec:	68bb      	ldr	r3, [r7, #8]
 80010ee:	430a      	orrs	r2, r1
 80010f0:	609a      	str	r2, [r3, #8]
	pin.port->PUPDR = (pin.port->PUPDR & ~(0b11 << 2*pin.bit)) | (pupd << 2*pin.bit); //sets the pull up / pull down reg
 80010f2:	68bb      	ldr	r3, [r7, #8]
 80010f4:	68db      	ldr	r3, [r3, #12]
 80010f6:	68fa      	ldr	r2, [r7, #12]
 80010f8:	0052      	lsls	r2, r2, #1
 80010fa:	2103      	movs	r1, #3
 80010fc:	fa01 f202 	lsl.w	r2, r1, r2
 8001100:	43d2      	mvns	r2, r2
 8001102:	401a      	ands	r2, r3
 8001104:	7e39      	ldrb	r1, [r7, #24]
 8001106:	68fb      	ldr	r3, [r7, #12]
 8001108:	005b      	lsls	r3, r3, #1
 800110a:	fa01 f303 	lsl.w	r3, r1, r3
 800110e:	4619      	mov	r1, r3
 8001110:	68bb      	ldr	r3, [r7, #8]
 8001112:	430a      	orrs	r2, r1
 8001114:	60da      	str	r2, [r3, #12]
}
 8001116:	bf00      	nop
 8001118:	3710      	adds	r7, #16
 800111a:	46bd      	mov	sp, r7
 800111c:	bc90      	pop	{r4, r7}
 800111e:	4770      	bx	lr

08001120 <GPIO_AltFunc>:

// af is value from 0 to 15 which is mux selector
void GPIO_AltFunc (Pin_t pin, int af) {
 8001120:	b480      	push	{r7}
 8001122:	b085      	sub	sp, #20
 8001124:	af00      	add	r7, sp, #0
 8001126:	f107 0308 	add.w	r3, r7, #8
 800112a:	e883 0003 	stmia.w	r3, {r0, r1}
 800112e:	607a      	str	r2, [r7, #4]
	if (af <= 7) { //work with AFRL
 8001130:	687b      	ldr	r3, [r7, #4]
 8001132:	2b07      	cmp	r3, #7
 8001134:	dc12      	bgt.n	800115c <GPIO_AltFunc+0x3c>
		pin.port->AFR[0] = (pin.port->AFR[0] & ~(0b1111 << 4*pin.bit)) | (af << 4*pin.bit);
 8001136:	68bb      	ldr	r3, [r7, #8]
 8001138:	6a1b      	ldr	r3, [r3, #32]
 800113a:	68fa      	ldr	r2, [r7, #12]
 800113c:	0092      	lsls	r2, r2, #2
 800113e:	210f      	movs	r1, #15
 8001140:	fa01 f202 	lsl.w	r2, r1, r2
 8001144:	43d2      	mvns	r2, r2
 8001146:	401a      	ands	r2, r3
 8001148:	68fb      	ldr	r3, [r7, #12]
 800114a:	009b      	lsls	r3, r3, #2
 800114c:	6879      	ldr	r1, [r7, #4]
 800114e:	fa01 f303 	lsl.w	r3, r1, r3
 8001152:	4619      	mov	r1, r3
 8001154:	68bb      	ldr	r3, [r7, #8]
 8001156:	430a      	orrs	r2, r1
 8001158:	621a      	str	r2, [r3, #32]
	}
	else if (af >= 8) { //work with AFRH
		pin.port->AFR[1] = (pin.port->AFR[1] & ~(0b1111 << 4*(pin.bit-8))) | (af << 4*(pin.bit-8));
	}

}
 800115a:	e016      	b.n	800118a <GPIO_AltFunc+0x6a>
	else if (af >= 8) { //work with AFRH
 800115c:	687b      	ldr	r3, [r7, #4]
 800115e:	2b07      	cmp	r3, #7
 8001160:	dd13      	ble.n	800118a <GPIO_AltFunc+0x6a>
		pin.port->AFR[1] = (pin.port->AFR[1] & ~(0b1111 << 4*(pin.bit-8))) | (af << 4*(pin.bit-8));
 8001162:	68bb      	ldr	r3, [r7, #8]
 8001164:	6a5b      	ldr	r3, [r3, #36]	@ 0x24
 8001166:	68fa      	ldr	r2, [r7, #12]
 8001168:	3a08      	subs	r2, #8
 800116a:	0092      	lsls	r2, r2, #2
 800116c:	210f      	movs	r1, #15
 800116e:	fa01 f202 	lsl.w	r2, r1, r2
 8001172:	43d2      	mvns	r2, r2
 8001174:	401a      	ands	r2, r3
 8001176:	68fb      	ldr	r3, [r7, #12]
 8001178:	3b08      	subs	r3, #8
 800117a:	009b      	lsls	r3, r3, #2
 800117c:	6879      	ldr	r1, [r7, #4]
 800117e:	fa01 f303 	lsl.w	r3, r1, r3
 8001182:	4619      	mov	r1, r3
 8001184:	68bb      	ldr	r3, [r7, #8]
 8001186:	430a      	orrs	r2, r1
 8001188:	625a      	str	r2, [r3, #36]	@ 0x24
}
 800118a:	bf00      	nop
 800118c:	3714      	adds	r7, #20
 800118e:	46bd      	mov	sp, r7
 8001190:	f85d 7b04 	ldr.w	r7, [sp], #4
 8001194:	4770      	bx	lr
	...

08001198 <GPIO_Output>:
	}
	//return ((pin.port->IDR) & (0x1UL << pin.bit));

}

void GPIO_Output(Pin_t pin, const PinState_t state) { //WORKING
 8001198:	b480      	push	{r7}
 800119a:	b085      	sub	sp, #20
 800119c:	af00      	add	r7, sp, #0
 800119e:	f107 0308 	add.w	r3, r7, #8
 80011a2:	e883 0003 	stmia.w	r3, {r0, r1}
 80011a6:	4613      	mov	r3, r2
 80011a8:	71fb      	strb	r3, [r7, #7]
	if (pin.port == GPIOX) {
 80011aa:	68bb      	ldr	r3, [r7, #8]
 80011ac:	4a1b      	ldr	r2, [pc, #108]	@ (800121c <GPIO_Output+0x84>)
 80011ae:	4293      	cmp	r3, r2
 80011b0:	d119      	bne.n	80011e6 <GPIO_Output+0x4e>
		if (state == HIGH)
 80011b2:	79fb      	ldrb	r3, [r7, #7]
 80011b4:	2b01      	cmp	r3, #1
 80011b6:	d10a      	bne.n	80011ce <GPIO_Output+0x36>
			pin.port->ODR |= 1 << pin.bit;
 80011b8:	68bb      	ldr	r3, [r7, #8]
 80011ba:	695a      	ldr	r2, [r3, #20]
 80011bc:	68fb      	ldr	r3, [r7, #12]
 80011be:	2101      	movs	r1, #1
 80011c0:	fa01 f303 	lsl.w	r3, r1, r3
 80011c4:	4619      	mov	r1, r3
 80011c6:	68bb      	ldr	r3, [r7, #8]
 80011c8:	430a      	orrs	r2, r1
 80011ca:	615a      	str	r2, [r3, #20]
		else if (state == LOW) {
			pin.port->BSRR = (0x1UL << (16+pin.bit));
		}
	}

}
 80011cc:	e020      	b.n	8001210 <GPIO_Output+0x78>
			pin.port->ODR &= ~(1 << pin.bit);
 80011ce:	68bb      	ldr	r3, [r7, #8]
 80011d0:	695a      	ldr	r2, [r3, #20]
 80011d2:	68fb      	ldr	r3, [r7, #12]
 80011d4:	2101      	movs	r1, #1
 80011d6:	fa01 f303 	lsl.w	r3, r1, r3
 80011da:	43db      	mvns	r3, r3
 80011dc:	4619      	mov	r1, r3
 80011de:	68bb      	ldr	r3, [r7, #8]
 80011e0:	400a      	ands	r2, r1
 80011e2:	615a      	str	r2, [r3, #20]
}
 80011e4:	e014      	b.n	8001210 <GPIO_Output+0x78>
		if (state == HIGH) {
 80011e6:	79fb      	ldrb	r3, [r7, #7]
 80011e8:	2b01      	cmp	r3, #1
 80011ea:	d106      	bne.n	80011fa <GPIO_Output+0x62>
			pin.port->BSRR = (0x1UL << pin.bit);
 80011ec:	68fa      	ldr	r2, [r7, #12]
 80011ee:	68bb      	ldr	r3, [r7, #8]
 80011f0:	2101      	movs	r1, #1
 80011f2:	fa01 f202 	lsl.w	r2, r1, r2
 80011f6:	619a      	str	r2, [r3, #24]
}
 80011f8:	e00a      	b.n	8001210 <GPIO_Output+0x78>
		else if (state == LOW) {
 80011fa:	79fb      	ldrb	r3, [r7, #7]
 80011fc:	2b00      	cmp	r3, #0
 80011fe:	d107      	bne.n	8001210 <GPIO_Output+0x78>
			pin.port->BSRR = (0x1UL << (16+pin.bit));
 8001200:	68fb      	ldr	r3, [r7, #12]
 8001202:	f103 0210 	add.w	r2, r3, #16
 8001206:	68bb      	ldr	r3, [r7, #8]
 8001208:	2101      	movs	r1, #1
 800120a:	fa01 f202 	lsl.w	r2, r1, r2
 800120e:	619a      	str	r2, [r3, #24]
}
 8001210:	bf00      	nop
 8001212:	3714      	adds	r7, #20
 8001214:	46bd      	mov	sp, r7
 8001216:	f85d 7b04 	ldr.w	r7, [sp], #4
 800121a:	4770      	bx	lr
 800121c:	200000cc 	.word	0x200000cc

08001220 <GPIO_PortOutput>:

void GPIO_PortOutput (GPIO_TypeDef *port, uint16_t states) {
 8001220:	b480      	push	{r7}
 8001222:	b083      	sub	sp, #12
 8001224:	af00      	add	r7, sp, #0
 8001226:	6078      	str	r0, [r7, #4]
 8001228:	460b      	mov	r3, r1
 800122a:	807b      	strh	r3, [r7, #2]
	port->ODR = states;
 800122c:	887a      	ldrh	r2, [r7, #2]
 800122e:	687b      	ldr	r3, [r7, #4]
 8001230:	615a      	str	r2, [r3, #20]
}
 8001232:	bf00      	nop
 8001234:	370c      	adds	r7, #12
 8001236:	46bd      	mov	sp, r7
 8001238:	f85d 7b04 	ldr.w	r7, [sp], #4
 800123c:	4770      	bx	lr
	...

08001240 <UpdateIOExpanders>:
static uint8_t IOX_txData = 0xFF;
static uint8_t IOX_rxData = 0xFF;
// I2C transfer structures
static I2C_Xfer_t IOX_LEDs = {&LeafyI2C, 0x70, &IOX_txData, 1, 1, 0, NULL};
static I2C_Xfer_t IOX_PBs = {&LeafyI2C, 0x73, &IOX_rxData, 1, 1, 0, NULL};
void UpdateIOExpanders(void) {
 8001240:	b580      	push	{r7, lr}
 8001242:	af00      	add	r7, sp, #0
// Copy to/from data buffers, with polarity inversion
IOX_txData = ~(GPIOX->ODR & 0xFF); // LEDs in bits 7:0
 8001244:	4b11      	ldr	r3, [pc, #68]	@ (800128c <UpdateIOExpanders+0x4c>)
 8001246:	695b      	ldr	r3, [r3, #20]
 8001248:	b2db      	uxtb	r3, r3
 800124a:	43db      	mvns	r3, r3
 800124c:	b2da      	uxtb	r2, r3
 800124e:	4b10      	ldr	r3, [pc, #64]	@ (8001290 <UpdateIOExpanders+0x50>)
 8001250:	701a      	strb	r2, [r3, #0]
GPIOX->IDR = (~IOX_rxData) << 8; // PBs in bits 15:8
 8001252:	4b10      	ldr	r3, [pc, #64]	@ (8001294 <UpdateIOExpanders+0x54>)
 8001254:	781b      	ldrb	r3, [r3, #0]
 8001256:	43db      	mvns	r3, r3
 8001258:	021b      	lsls	r3, r3, #8
 800125a:	4a0c      	ldr	r2, [pc, #48]	@ (800128c <UpdateIOExpanders+0x4c>)
 800125c:	6113      	str	r3, [r2, #16]
// Keep requesting transfers to/from I/O expanders
if (!IOX_LEDs.busy)
 800125e:	4b0e      	ldr	r3, [pc, #56]	@ (8001298 <UpdateIOExpanders+0x58>)
 8001260:	7c5b      	ldrb	r3, [r3, #17]
 8001262:	f083 0301 	eor.w	r3, r3, #1
 8001266:	b2db      	uxtb	r3, r3
 8001268:	2b00      	cmp	r3, #0
 800126a:	d002      	beq.n	8001272 <UpdateIOExpanders+0x32>
I2C_Request(&IOX_LEDs);
 800126c:	480a      	ldr	r0, [pc, #40]	@ (8001298 <UpdateIOExpanders+0x58>)
 800126e:	f000 f9cd 	bl	800160c <I2C_Request>
if (!IOX_PBs.busy)
 8001272:	4b0a      	ldr	r3, [pc, #40]	@ (800129c <UpdateIOExpanders+0x5c>)
 8001274:	7c5b      	ldrb	r3, [r3, #17]
 8001276:	f083 0301 	eor.w	r3, r3, #1
 800127a:	b2db      	uxtb	r3, r3
 800127c:	2b00      	cmp	r3, #0
 800127e:	d002      	beq.n	8001286 <UpdateIOExpanders+0x46>
I2C_Request(&IOX_PBs);
 8001280:	4806      	ldr	r0, [pc, #24]	@ (800129c <UpdateIOExpanders+0x5c>)
 8001282:	f000 f9c3 	bl	800160c <I2C_Request>
}
 8001286:	bf00      	nop
 8001288:	bd80      	pop	{r7, pc}
 800128a:	bf00      	nop
 800128c:	200000cc 	.word	0x200000cc
 8001290:	20000100 	.word	0x20000100
 8001294:	20000101 	.word	0x20000101
 8001298:	20000104 	.word	0x20000104
 800129c:	2000011c 	.word	0x2000011c

080012a0 <GPIO_Callback>:
// Bits 0 to 15 (each can select one port GPIOA to GPIOH)
// Rising and falling edge triggers for each
static void (*callbacks[16][2])(void);

// Register a function to be called when an interrupt occurs
void GPIO_Callback(Pin_t pin, void (*func)(void), PinEdge_t edge) {
 80012a0:	b490      	push	{r4, r7}
 80012a2:	b084      	sub	sp, #16
 80012a4:	af00      	add	r7, sp, #0
 80012a6:	f107 0408 	add.w	r4, r7, #8
 80012aa:	e884 0003 	stmia.w	r4, {r0, r1}
 80012ae:	607a      	str	r2, [r7, #4]
 80012b0:	70fb      	strb	r3, [r7, #3]
callbacks[pin.bit][edge] = func;
 80012b2:	68fa      	ldr	r2, [r7, #12]
 80012b4:	78fb      	ldrb	r3, [r7, #3]
 80012b6:	4933      	ldr	r1, [pc, #204]	@ (8001384 <GPIO_Callback+0xe4>)
 80012b8:	0052      	lsls	r2, r2, #1
 80012ba:	4413      	add	r3, r2
 80012bc:	687a      	ldr	r2, [r7, #4]
 80012be:	f841 2023 	str.w	r2, [r1, r3, lsl #2]
// Enable interrupt generation
if (edge == RISE)
 80012c2:	78fb      	ldrb	r3, [r7, #3]
 80012c4:	2b01      	cmp	r3, #1
 80012c6:	d10a      	bne.n	80012de <GPIO_Callback+0x3e>
	EXTI->RTSR1 |= 1 << pin.bit;
 80012c8:	4b2f      	ldr	r3, [pc, #188]	@ (8001388 <GPIO_Callback+0xe8>)
 80012ca:	681b      	ldr	r3, [r3, #0]
 80012cc:	68fa      	ldr	r2, [r7, #12]
 80012ce:	2101      	movs	r1, #1
 80012d0:	fa01 f202 	lsl.w	r2, r1, r2
 80012d4:	4611      	mov	r1, r2
 80012d6:	4a2c      	ldr	r2, [pc, #176]	@ (8001388 <GPIO_Callback+0xe8>)
 80012d8:	430b      	orrs	r3, r1
 80012da:	6013      	str	r3, [r2, #0]
 80012dc:	e009      	b.n	80012f2 <GPIO_Callback+0x52>
else
	// FALL
	EXTI->FTSR1 |= 1 << pin.bit;
 80012de:	4b2a      	ldr	r3, [pc, #168]	@ (8001388 <GPIO_Callback+0xe8>)
 80012e0:	685b      	ldr	r3, [r3, #4]
 80012e2:	68fa      	ldr	r2, [r7, #12]
 80012e4:	2101      	movs	r1, #1
 80012e6:	fa01 f202 	lsl.w	r2, r1, r2
 80012ea:	4611      	mov	r1, r2
 80012ec:	4a26      	ldr	r2, [pc, #152]	@ (8001388 <GPIO_Callback+0xe8>)
 80012ee:	430b      	orrs	r3, r1
 80012f0:	6053      	str	r3, [r2, #4]
EXTI->EXTICR[pin.bit / 4] |= GPIO_PORT_NUM(pin.port) << 8 * (pin.bit % 4);
 80012f2:	4925      	ldr	r1, [pc, #148]	@ (8001388 <GPIO_Callback+0xe8>)
 80012f4:	68fb      	ldr	r3, [r7, #12]
 80012f6:	2b00      	cmp	r3, #0
 80012f8:	da00      	bge.n	80012fc <GPIO_Callback+0x5c>
 80012fa:	3303      	adds	r3, #3
 80012fc:	109b      	asrs	r3, r3, #2
 80012fe:	461a      	mov	r2, r3
 8001300:	f102 0318 	add.w	r3, r2, #24
 8001304:	f851 1023 	ldr.w	r1, [r1, r3, lsl #2]
 8001308:	68bb      	ldr	r3, [r7, #8]
 800130a:	f403 437c 	and.w	r3, r3, #64512	@ 0xfc00
 800130e:	0a98      	lsrs	r0, r3, #10
 8001310:	68fb      	ldr	r3, [r7, #12]
 8001312:	425c      	negs	r4, r3
 8001314:	f003 0303 	and.w	r3, r3, #3
 8001318:	f004 0403 	and.w	r4, r4, #3
 800131c:	bf58      	it	pl
 800131e:	4263      	negpl	r3, r4
 8001320:	00db      	lsls	r3, r3, #3
 8001322:	fa00 f303 	lsl.w	r3, r0, r3
 8001326:	4818      	ldr	r0, [pc, #96]	@ (8001388 <GPIO_Callback+0xe8>)
 8001328:	4319      	orrs	r1, r3
 800132a:	f102 0318 	add.w	r3, r2, #24
 800132e:	f840 1023 	str.w	r1, [r0, r3, lsl #2]
EXTI->IMR1 |= 1 << pin.bit;
 8001332:	4b15      	ldr	r3, [pc, #84]	@ (8001388 <GPIO_Callback+0xe8>)
 8001334:	f8d3 3080 	ldr.w	r3, [r3, #128]	@ 0x80
 8001338:	68fa      	ldr	r2, [r7, #12]
 800133a:	2101      	movs	r1, #1
 800133c:	fa01 f202 	lsl.w	r2, r1, r2
 8001340:	4611      	mov	r1, r2
 8001342:	4a11      	ldr	r2, [pc, #68]	@ (8001388 <GPIO_Callback+0xe8>)
 8001344:	430b      	orrs	r3, r1
 8001346:	f8c2 3080 	str.w	r3, [r2, #128]	@ 0x80
// Enable interrupt vector
NVIC->IPR[EXTI0_IRQn + pin.bit] = 0;
 800134a:	4a10      	ldr	r2, [pc, #64]	@ (800138c <GPIO_Callback+0xec>)
 800134c:	68fb      	ldr	r3, [r7, #12]
 800134e:	330b      	adds	r3, #11
 8001350:	4413      	add	r3, r2
 8001352:	2200      	movs	r2, #0
 8001354:	f883 2300 	strb.w	r2, [r3, #768]	@ 0x300
__COMPILER_BARRIER();
NVIC->ISER[(EXTI0_IRQn + pin.bit) / 32] = 1 << ((EXTI0_IRQn + pin.bit) % 32);
 8001358:	68fb      	ldr	r3, [r7, #12]
 800135a:	330b      	adds	r3, #11
 800135c:	f003 031f 	and.w	r3, r3, #31
 8001360:	2201      	movs	r2, #1
 8001362:	fa02 f103 	lsl.w	r1, r2, r3
 8001366:	4a09      	ldr	r2, [pc, #36]	@ (800138c <GPIO_Callback+0xec>)
 8001368:	68fb      	ldr	r3, [r7, #12]
 800136a:	330b      	adds	r3, #11
 800136c:	2b00      	cmp	r3, #0
 800136e:	da00      	bge.n	8001372 <GPIO_Callback+0xd2>
 8001370:	331f      	adds	r3, #31
 8001372:	115b      	asrs	r3, r3, #5
 8001374:	f842 1023 	str.w	r1, [r2, r3, lsl #2]
__COMPILER_BARRIER();
}
 8001378:	bf00      	nop
 800137a:	3710      	adds	r7, #16
 800137c:	46bd      	mov	sp, r7
 800137e:	bc90      	pop	{r4, r7}
 8001380:	4770      	bx	lr
 8001382:	bf00      	nop
 8001384:	20000248 	.word	0x20000248
 8001388:	4002f400 	.word	0x4002f400
 800138c:	e000e100 	.word	0xe000e100

08001390 <GPIO_IRQHandler>:

// Interrupt handler for all GPIO pins
void GPIO_IRQHandler(int i) {
 8001390:	b580      	push	{r7, lr}
 8001392:	b082      	sub	sp, #8
 8001394:	af00      	add	r7, sp, #0
 8001396:	6078      	str	r0, [r7, #4]
// Clear pending IRQ
NVIC->ICPR[(EXTI0_IRQn + i) / 32] = 1 << ((EXTI0_IRQn + i) % 32);
 8001398:	687b      	ldr	r3, [r7, #4]
 800139a:	330b      	adds	r3, #11
 800139c:	f003 031f 	and.w	r3, r3, #31
 80013a0:	2201      	movs	r2, #1
 80013a2:	fa02 f103 	lsl.w	r1, r2, r3
 80013a6:	4a1a      	ldr	r2, [pc, #104]	@ (8001410 <GPIO_IRQHandler+0x80>)
 80013a8:	687b      	ldr	r3, [r7, #4]
 80013aa:	330b      	adds	r3, #11
 80013ac:	2b00      	cmp	r3, #0
 80013ae:	da00      	bge.n	80013b2 <GPIO_IRQHandler+0x22>
 80013b0:	331f      	adds	r3, #31
 80013b2:	115b      	asrs	r3, r3, #5
 80013b4:	3360      	adds	r3, #96	@ 0x60
 80013b6:	f842 1023 	str.w	r1, [r2, r3, lsl #2]
// Detect rising edge
if (EXTI->RPR1 & (1 << i)) {
 80013ba:	4b16      	ldr	r3, [pc, #88]	@ (8001414 <GPIO_IRQHandler+0x84>)
 80013bc:	68db      	ldr	r3, [r3, #12]
 80013be:	2101      	movs	r1, #1
 80013c0:	687a      	ldr	r2, [r7, #4]
 80013c2:	fa01 f202 	lsl.w	r2, r1, r2
 80013c6:	4013      	ands	r3, r2
 80013c8:	2b00      	cmp	r3, #0
 80013ca:	d00a      	beq.n	80013e2 <GPIO_IRQHandler+0x52>
	EXTI->RPR1 = (1 << i); // Service interrupt
 80013cc:	2201      	movs	r2, #1
 80013ce:	687b      	ldr	r3, [r7, #4]
 80013d0:	409a      	lsls	r2, r3
 80013d2:	4b10      	ldr	r3, [pc, #64]	@ (8001414 <GPIO_IRQHandler+0x84>)
 80013d4:	60da      	str	r2, [r3, #12]
	callbacks[i][RISE](); // Invoke callback function
 80013d6:	4a10      	ldr	r2, [pc, #64]	@ (8001418 <GPIO_IRQHandler+0x88>)
 80013d8:	687b      	ldr	r3, [r7, #4]
 80013da:	00db      	lsls	r3, r3, #3
 80013dc:	4413      	add	r3, r2
 80013de:	685b      	ldr	r3, [r3, #4]
 80013e0:	4798      	blx	r3
}

// Detect falling edge
if (EXTI->FPR1 & (1 << i)) {
 80013e2:	4b0c      	ldr	r3, [pc, #48]	@ (8001414 <GPIO_IRQHandler+0x84>)
 80013e4:	691b      	ldr	r3, [r3, #16]
 80013e6:	2101      	movs	r1, #1
 80013e8:	687a      	ldr	r2, [r7, #4]
 80013ea:	fa01 f202 	lsl.w	r2, r1, r2
 80013ee:	4013      	ands	r3, r2
 80013f0:	2b00      	cmp	r3, #0
 80013f2:	d009      	beq.n	8001408 <GPIO_IRQHandler+0x78>
	EXTI->FPR1 = (1 << i); // Service interrupt
 80013f4:	2201      	movs	r2, #1
 80013f6:	687b      	ldr	r3, [r7, #4]
 80013f8:	409a      	lsls	r2, r3
 80013fa:	4b06      	ldr	r3, [pc, #24]	@ (8001414 <GPIO_IRQHandler+0x84>)
 80013fc:	611a      	str	r2, [r3, #16]
	callbacks[i][FALL](); // Invoke callback function
 80013fe:	4a06      	ldr	r2, [pc, #24]	@ (8001418 <GPIO_IRQHandler+0x88>)
 8001400:	687b      	ldr	r3, [r7, #4]
 8001402:	f852 3033 	ldr.w	r3, [r2, r3, lsl #3]
 8001406:	4798      	blx	r3
}
}
 8001408:	bf00      	nop
 800140a:	3708      	adds	r7, #8
 800140c:	46bd      	mov	sp, r7
 800140e:	bd80      	pop	{r7, pc}
 8001410:	e000e100 	.word	0xe000e100
 8001414:	4002f400 	.word	0x4002f400
 8001418:	20000248 	.word	0x20000248

0800141c <EXTI0_IRQHandler>:
// Dispatch all GPIO IRQs to common handler function
void EXTI0_IRQHandler() { GPIO_IRQHandler( 0); }
 800141c:	b580      	push	{r7, lr}
 800141e:	af00      	add	r7, sp, #0
 8001420:	2000      	movs	r0, #0
 8001422:	f7ff ffb5 	bl	8001390 <GPIO_IRQHandler>
 8001426:	bf00      	nop
 8001428:	bd80      	pop	{r7, pc}

0800142a <EXTI1_IRQHandler>:
void EXTI1_IRQHandler() { GPIO_IRQHandler( 1); }
 800142a:	b580      	push	{r7, lr}
 800142c:	af00      	add	r7, sp, #0
 800142e:	2001      	movs	r0, #1
 8001430:	f7ff ffae 	bl	8001390 <GPIO_IRQHandler>
 8001434:	bf00      	nop
 8001436:	bd80      	pop	{r7, pc}

08001438 <EXTI2_IRQHandler>:
void EXTI2_IRQHandler() { GPIO_IRQHandler( 2); }
 8001438:	b580      	push	{r7, lr}
 800143a:	af00      	add	r7, sp, #0
 800143c:	2002      	movs	r0, #2
 800143e:	f7ff ffa7 	bl	8001390 <GPIO_IRQHandler>
 8001442:	bf00      	nop
 8001444:	bd80      	pop	{r7, pc}

08001446 <EXTI3_IRQHandler>:
void EXTI3_IRQHandler() { GPIO_IRQHandler( 3); }
 8001446:	b580      	push	{r7, lr}
 8001448:	af00      	add	r7, sp, #0
 800144a:	2003      	movs	r0, #3
 800144c:	f7ff ffa0 	bl	8001390 <GPIO_IRQHandler>
 8001450:	bf00      	nop
 8001452:	bd80      	pop	{r7, pc}

08001454 <EXTI4_IRQHandler>:
void EXTI4_IRQHandler() { GPIO_IRQHandler( 4); }
 8001454:	b580      	push	{r7, lr}
 8001456:	af00      	add	r7, sp, #0
 8001458:	2004      	movs	r0, #4
 800145a:	f7ff ff99 	bl	8001390 <GPIO_IRQHandler>
 800145e:	bf00      	nop
 8001460:	bd80      	pop	{r7, pc}

08001462 <EXTI5_IRQHandler>:
void EXTI5_IRQHandler() { GPIO_IRQHandler( 5); }
 8001462:	b580      	push	{r7, lr}
 8001464:	af00      	add	r7, sp, #0
 8001466:	2005      	movs	r0, #5
 8001468:	f7ff ff92 	bl	8001390 <GPIO_IRQHandler>
 800146c:	bf00      	nop
 800146e:	bd80      	pop	{r7, pc}

08001470 <EXTI6_IRQHandler>:
void EXTI6_IRQHandler() { GPIO_IRQHandler( 6); }
 8001470:	b580      	push	{r7, lr}
 8001472:	af00      	add	r7, sp, #0
 8001474:	2006      	movs	r0, #6
 8001476:	f7ff ff8b 	bl	8001390 <GPIO_IRQHandler>
 800147a:	bf00      	nop
 800147c:	bd80      	pop	{r7, pc}

0800147e <EXTI7_IRQHandler>:
void EXTI7_IRQHandler() { GPIO_IRQHandler( 7); }
 800147e:	b580      	push	{r7, lr}
 8001480:	af00      	add	r7, sp, #0
 8001482:	2007      	movs	r0, #7
 8001484:	f7ff ff84 	bl	8001390 <GPIO_IRQHandler>
 8001488:	bf00      	nop
 800148a:	bd80      	pop	{r7, pc}

0800148c <EXTI8_IRQHandler>:
void EXTI8_IRQHandler() { GPIO_IRQHandler( 8); }
 800148c:	b580      	push	{r7, lr}
 800148e:	af00      	add	r7, sp, #0
 8001490:	2008      	movs	r0, #8
 8001492:	f7ff ff7d 	bl	8001390 <GPIO_IRQHandler>
 8001496:	bf00      	nop
 8001498:	bd80      	pop	{r7, pc}

0800149a <EXTI9_IRQHandler>:
void EXTI9_IRQHandler() { GPIO_IRQHandler( 9); }
 800149a:	b580      	push	{r7, lr}
 800149c:	af00      	add	r7, sp, #0
 800149e:	2009      	movs	r0, #9
 80014a0:	f7ff ff76 	bl	8001390 <GPIO_IRQHandler>
 80014a4:	bf00      	nop
 80014a6:	bd80      	pop	{r7, pc}

080014a8 <EXTI10_IRQHandler>:
void EXTI10_IRQHandler() { GPIO_IRQHandler(10); }
 80014a8:	b580      	push	{r7, lr}
 80014aa:	af00      	add	r7, sp, #0
 80014ac:	200a      	movs	r0, #10
 80014ae:	f7ff ff6f 	bl	8001390 <GPIO_IRQHandler>
 80014b2:	bf00      	nop
 80014b4:	bd80      	pop	{r7, pc}

080014b6 <EXTI11_IRQHandler>:
void EXTI11_IRQHandler() { GPIO_IRQHandler(11); }
 80014b6:	b580      	push	{r7, lr}
 80014b8:	af00      	add	r7, sp, #0
 80014ba:	200b      	movs	r0, #11
 80014bc:	f7ff ff68 	bl	8001390 <GPIO_IRQHandler>
 80014c0:	bf00      	nop
 80014c2:	bd80      	pop	{r7, pc}

080014c4 <EXTI12_IRQHandler>:
void EXTI12_IRQHandler() { GPIO_IRQHandler(12); }
 80014c4:	b580      	push	{r7, lr}
 80014c6:	af00      	add	r7, sp, #0
 80014c8:	200c      	movs	r0, #12
 80014ca:	f7ff ff61 	bl	8001390 <GPIO_IRQHandler>
 80014ce:	bf00      	nop
 80014d0:	bd80      	pop	{r7, pc}

080014d2 <EXTI13_IRQHandler>:
void EXTI13_IRQHandler() { GPIO_IRQHandler(13); }
 80014d2:	b580      	push	{r7, lr}
 80014d4:	af00      	add	r7, sp, #0
 80014d6:	200d      	movs	r0, #13
 80014d8:	f7ff ff5a 	bl	8001390 <GPIO_IRQHandler>
 80014dc:	bf00      	nop
 80014de:	bd80      	pop	{r7, pc}

080014e0 <EXTI14_IRQHandler>:
void EXTI14_IRQHandler() { GPIO_IRQHandler(14); }
 80014e0:	b580      	push	{r7, lr}
 80014e2:	af00      	add	r7, sp, #0
 80014e4:	200e      	movs	r0, #14
 80014e6:	f7ff ff53 	bl	8001390 <GPIO_IRQHandler>
 80014ea:	bf00      	nop
 80014ec:	bd80      	pop	{r7, pc}

080014ee <EXTI15_IRQHandler>:
void EXTI15_IRQHandler() { GPIO_IRQHandler(15); }
 80014ee:	b580      	push	{r7, lr}
 80014f0:	af00      	add	r7, sp, #0
 80014f2:	200f      	movs	r0, #15
 80014f4:	f7ff ff4c 	bl	8001390 <GPIO_IRQHandler>
 80014f8:	bf00      	nop
 80014fa:	bd80      	pop	{r7, pc}

080014fc <I2C_Enable>:
static int n = -1; // Number of bytes transferred, -1 when idle
// Bit 0 of address byte indicates read vs write transfer
#define I2C_READ (head->addr & 0x1)
#define I2C_WRITE (!(head->addr & 0x1))
// Enable I2C controller and configure associated GPIO pins
void I2C_Enable (I2C_Bus_t bus) {
 80014fc:	b084      	sub	sp, #16
 80014fe:	b580      	push	{r7, lr}
 8001500:	b082      	sub	sp, #8
 8001502:	af02      	add	r7, sp, #8
 8001504:	f107 0c08 	add.w	ip, r7, #8
 8001508:	e88c 000f 	stmia.w	ip, {r0, r1, r2, r3}
if (bus.iface->CR1 & I2C_CR1_PE)
 800150c:	68bb      	ldr	r3, [r7, #8]
 800150e:	681b      	ldr	r3, [r3, #0]
 8001510:	f003 0301 	and.w	r3, r3, #1
 8001514:	2b00      	cmp	r3, #0
 8001516:	d168      	bne.n	80015ea <I2C_Enable+0xee>
return; // Already enabled
// Enable clock to selected I2C controller
RCC->APB1ENR1 |= bus.iface == I2C1 ? RCC_APB1ENR1_I2C1EN :
 8001518:	4b37      	ldr	r3, [pc, #220]	@ (80015f8 <I2C_Enable+0xfc>)
 800151a:	6d9a      	ldr	r2, [r3, #88]	@ 0x58
 800151c:	68bb      	ldr	r3, [r7, #8]
 800151e:	4937      	ldr	r1, [pc, #220]	@ (80015fc <I2C_Enable+0x100>)
 8001520:	428b      	cmp	r3, r1
 8001522:	d015      	beq.n	8001550 <I2C_Enable+0x54>
bus.iface == I2C2 ? RCC_APB1ENR1_I2C2EN :
 8001524:	68bb      	ldr	r3, [r7, #8]
 8001526:	4936      	ldr	r1, [pc, #216]	@ (8001600 <I2C_Enable+0x104>)
 8001528:	428b      	cmp	r3, r1
 800152a:	d00e      	beq.n	800154a <I2C_Enable+0x4e>
bus.iface == I2C3 ? RCC_APB1ENR1_I2C3EN :
 800152c:	68bb      	ldr	r3, [r7, #8]
 800152e:	4935      	ldr	r1, [pc, #212]	@ (8001604 <I2C_Enable+0x108>)
 8001530:	428b      	cmp	r3, r1
 8001532:	d007      	beq.n	8001544 <I2C_Enable+0x48>
bus.iface == I2C4 ? RCC_APB1ENR2_I2C4EN : 0;
 8001534:	68bb      	ldr	r3, [r7, #8]
 8001536:	4934      	ldr	r1, [pc, #208]	@ (8001608 <I2C_Enable+0x10c>)
 8001538:	428b      	cmp	r3, r1
 800153a:	d101      	bne.n	8001540 <I2C_Enable+0x44>
 800153c:	2302      	movs	r3, #2
 800153e:	e009      	b.n	8001554 <I2C_Enable+0x58>
 8001540:	2300      	movs	r3, #0
 8001542:	e007      	b.n	8001554 <I2C_Enable+0x58>
bus.iface == I2C3 ? RCC_APB1ENR1_I2C3EN :
 8001544:	f44f 0300 	mov.w	r3, #8388608	@ 0x800000
 8001548:	e004      	b.n	8001554 <I2C_Enable+0x58>
bus.iface == I2C2 ? RCC_APB1ENR1_I2C2EN :
 800154a:	f44f 0380 	mov.w	r3, #4194304	@ 0x400000
 800154e:	e001      	b.n	8001554 <I2C_Enable+0x58>
RCC->APB1ENR1 |= bus.iface == I2C1 ? RCC_APB1ENR1_I2C1EN :
 8001550:	f44f 1300 	mov.w	r3, #2097152	@ 0x200000
 8001554:	4928      	ldr	r1, [pc, #160]	@ (80015f8 <I2C_Enable+0xfc>)
 8001556:	4313      	orrs	r3, r2
 8001558:	658b      	str	r3, [r1, #88]	@ 0x58
// Enable clocks to GPIO ports containing SDA and SCL pins
GPIO_Enable(bus.pinSDA);
 800155a:	f107 030c 	add.w	r3, r7, #12
 800155e:	e893 0003 	ldmia.w	r3, {r0, r1}
 8001562:	f7ff fd35 	bl	8000fd0 <GPIO_Enable>
GPIO_Enable(bus.pinSCL);
 8001566:	f107 0314 	add.w	r3, r7, #20
 800156a:	e893 0003 	ldmia.w	r3, {r0, r1}
 800156e:	f7ff fd2f 	bl	8000fd0 <GPIO_Enable>
// Configure for open drain (PMOS disabled)
GPIO_Config(bus.pinSDA, OD, S0, NOPUPD);
 8001572:	2300      	movs	r3, #0
 8001574:	9300      	str	r3, [sp, #0]
 8001576:	2300      	movs	r3, #0
 8001578:	2201      	movs	r2, #1
 800157a:	f107 010c 	add.w	r1, r7, #12
 800157e:	c903      	ldmia	r1, {r0, r1}
 8001580:	f7ff fd88 	bl	8001094 <GPIO_Config>
GPIO_Config(bus.pinSCL, OD, S0, NOPUPD);
 8001584:	2300      	movs	r3, #0
 8001586:	9300      	str	r3, [sp, #0]
 8001588:	2300      	movs	r3, #0
 800158a:	2201      	movs	r2, #1
 800158c:	f107 0114 	add.w	r1, r7, #20
 8001590:	c903      	ldmia	r1, {r0, r1}
 8001592:	f7ff fd7f 	bl	8001094 <GPIO_Config>
// Select alternate function as I2C
GPIO_AltFunc(bus.pinSDA, 0x4);
 8001596:	2204      	movs	r2, #4
 8001598:	f107 030c 	add.w	r3, r7, #12
 800159c:	e893 0003 	ldmia.w	r3, {r0, r1}
 80015a0:	f7ff fdbe 	bl	8001120 <GPIO_AltFunc>
GPIO_AltFunc(bus.pinSCL, 0x4);
 80015a4:	2204      	movs	r2, #4
 80015a6:	f107 0314 	add.w	r3, r7, #20
 80015aa:	e893 0003 	ldmia.w	r3, {r0, r1}
 80015ae:	f7ff fdb7 	bl	8001120 <GPIO_AltFunc>
// Alternate function mode
GPIO_Mode(bus.pinSDA, ALTFUNC);
 80015b2:	2202      	movs	r2, #2
 80015b4:	f107 030c 	add.w	r3, r7, #12
 80015b8:	e893 0003 	ldmia.w	r3, {r0, r1}
 80015bc:	f7ff fd3c 	bl	8001038 <GPIO_Mode>
GPIO_Mode(bus.pinSCL, ALTFUNC);
 80015c0:	2202      	movs	r2, #2
 80015c2:	f107 0314 	add.w	r3, r7, #20
 80015c6:	e893 0003 	ldmia.w	r3, {r0, r1}
 80015ca:	f7ff fd35 	bl	8001038 <GPIO_Mode>
// Configure I2C peripheral
bus.iface->CR1 &= ~I2C_CR1_PE;
 80015ce:	68bb      	ldr	r3, [r7, #8]
 80015d0:	681a      	ldr	r2, [r3, #0]
 80015d2:	68bb      	ldr	r3, [r7, #8]
 80015d4:	f022 0201 	bic.w	r2, r2, #1
 80015d8:	601a      	str	r2, [r3, #0]
bus.iface->TIMINGR = 0xE14;
 80015da:	68bb      	ldr	r3, [r7, #8]
 80015dc:	f640 6214 	movw	r2, #3604	@ 0xe14
 80015e0:	611a      	str	r2, [r3, #16]
bus.iface->CR1 = I2C_CR1_PE;
 80015e2:	68bb      	ldr	r3, [r7, #8]
 80015e4:	2201      	movs	r2, #1
 80015e6:	601a      	str	r2, [r3, #0]
 80015e8:	e000      	b.n	80015ec <I2C_Enable+0xf0>
return; // Already enabled
 80015ea:	bf00      	nop
}
 80015ec:	46bd      	mov	sp, r7
 80015ee:	e8bd 4080 	ldmia.w	sp!, {r7, lr}
 80015f2:	b004      	add	sp, #16
 80015f4:	4770      	bx	lr
 80015f6:	bf00      	nop
 80015f8:	40021000 	.word	0x40021000
 80015fc:	40005400 	.word	0x40005400
 8001600:	40005800 	.word	0x40005800
 8001604:	40005c00 	.word	0x40005c00
 8001608:	40008400 	.word	0x40008400

0800160c <I2C_Request>:
// Add a transfer request to the queue
void I2C_Request (I2C_Xfer_t *p) {
 800160c:	b480      	push	{r7}
 800160e:	b083      	sub	sp, #12
 8001610:	af00      	add	r7, sp, #0
 8001612:	6078      	str	r0, [r7, #4]
if (head == NULL)
 8001614:	4b0d      	ldr	r3, [pc, #52]	@ (800164c <I2C_Request+0x40>)
 8001616:	681b      	ldr	r3, [r3, #0]
 8001618:	2b00      	cmp	r3, #0
 800161a:	d103      	bne.n	8001624 <I2C_Request+0x18>
head = p; // Add to empty queue
 800161c:	4a0b      	ldr	r2, [pc, #44]	@ (800164c <I2C_Request+0x40>)
 800161e:	687b      	ldr	r3, [r7, #4]
 8001620:	6013      	str	r3, [r2, #0]
 8001622:	e003      	b.n	800162c <I2C_Request+0x20>
else
tail->next = p; // Add to tail of non-empty queue
 8001624:	4b0a      	ldr	r3, [pc, #40]	@ (8001650 <I2C_Request+0x44>)
 8001626:	681b      	ldr	r3, [r3, #0]
 8001628:	687a      	ldr	r2, [r7, #4]
 800162a:	615a      	str	r2, [r3, #20]
tail = p;
 800162c:	4a08      	ldr	r2, [pc, #32]	@ (8001650 <I2C_Request+0x44>)
 800162e:	687b      	ldr	r3, [r7, #4]
 8001630:	6013      	str	r3, [r2, #0]
p->next = NULL;
 8001632:	687b      	ldr	r3, [r7, #4]
 8001634:	2200      	movs	r2, #0
 8001636:	615a      	str	r2, [r3, #20]
p->busy = true; // Mark transfer as in-progress
 8001638:	687b      	ldr	r3, [r7, #4]
 800163a:	2201      	movs	r2, #1
 800163c:	745a      	strb	r2, [r3, #17]
}
 800163e:	bf00      	nop
 8001640:	370c      	adds	r7, #12
 8001642:	46bd      	mov	sp, r7
 8001644:	f85d 7b04 	ldr.w	r7, [sp], #4
 8001648:	4770      	bx	lr
 800164a:	bf00      	nop
 800164c:	200002c8 	.word	0x200002c8
 8001650:	200002cc 	.word	0x200002cc

08001654 <ServiceI2CRequests>:
// Polling implementation, called from main loop every tick
void ServiceI2CRequests (void) {
 8001654:	b490      	push	{r4, r7}
 8001656:	b082      	sub	sp, #8
 8001658:	af00      	add	r7, sp, #0
if (head == NULL)
 800165a:	4b37      	ldr	r3, [pc, #220]	@ (8001738 <ServiceI2CRequests+0xe4>)
 800165c:	681b      	ldr	r3, [r3, #0]
 800165e:	2b00      	cmp	r3, #0
 8001660:	d064      	beq.n	800172c <ServiceI2CRequests+0xd8>
return; // Nothing to do right now
I2C_Xfer_t *q = head;
 8001662:	4b35      	ldr	r3, [pc, #212]	@ (8001738 <ServiceI2CRequests+0xe4>)
 8001664:	681b      	ldr	r3, [r3, #0]
 8001666:	607b      	str	r3, [r7, #4]
I2C_TypeDef *i2c = q->bus->iface;
 8001668:	687b      	ldr	r3, [r7, #4]
 800166a:	681b      	ldr	r3, [r3, #0]
 800166c:	681b      	ldr	r3, [r3, #0]
 800166e:	603b      	str	r3, [r7, #0]
if (n == -1) {
 8001670:	4b32      	ldr	r3, [pc, #200]	@ (800173c <ServiceI2CRequests+0xe8>)
 8001672:	681b      	ldr	r3, [r3, #0]
 8001674:	f1b3 3fff 	cmp.w	r3, #4294967295
 8001678:	d11e      	bne.n	80016b8 <ServiceI2CRequests+0x64>
// Begin a new transfer
n = 0;
 800167a:	4b30      	ldr	r3, [pc, #192]	@ (800173c <ServiceI2CRequests+0xe8>)
 800167c:	2200      	movs	r2, #0
 800167e:	601a      	str	r2, [r3, #0]
i2c->ICR = 0xFFFF; // Clear flags
 8001680:	683b      	ldr	r3, [r7, #0]
 8001682:	f64f 72ff 	movw	r2, #65535	@ 0xffff
 8001686:	61da      	str	r2, [r3, #28]
i2c->CR2 = (q->addr & 0xFE)
 8001688:	687b      	ldr	r3, [r7, #4]
 800168a:	791b      	ldrb	r3, [r3, #4]
 800168c:	f003 02fe 	and.w	r2, r3, #254	@ 0xfe
| I2C_READ << I2C_CR2_RD_WRN_Pos
 8001690:	4b29      	ldr	r3, [pc, #164]	@ (8001738 <ServiceI2CRequests+0xe4>)
 8001692:	681b      	ldr	r3, [r3, #0]
 8001694:	791b      	ldrb	r3, [r3, #4]
 8001696:	029b      	lsls	r3, r3, #10
 8001698:	f403 6380 	and.w	r3, r3, #1024	@ 0x400
 800169c:	431a      	orrs	r2, r3
| q->size << I2C_CR2_NBYTES_Pos
 800169e:	687b      	ldr	r3, [r7, #4]
 80016a0:	68db      	ldr	r3, [r3, #12]
 80016a2:	041b      	lsls	r3, r3, #16
 80016a4:	431a      	orrs	r2, r3
| q->stop << I2C_CR2_AUTOEND_Pos
 80016a6:	687b      	ldr	r3, [r7, #4]
 80016a8:	7c1b      	ldrb	r3, [r3, #16]
 80016aa:	065b      	lsls	r3, r3, #25
 80016ac:	4313      	orrs	r3, r2
| I2C_CR2_START;
 80016ae:	f443 5200 	orr.w	r2, r3, #8192	@ 0x2000
i2c->CR2 = (q->addr & 0xFE)
 80016b2:	683b      	ldr	r3, [r7, #0]
 80016b4:	605a      	str	r2, [r3, #4]
 80016b6:	e03a      	b.n	800172e <ServiceI2CRequests+0xda>
}
else if (n < q->size) {
 80016b8:	687b      	ldr	r3, [r7, #4]
 80016ba:	68da      	ldr	r2, [r3, #12]
 80016bc:	4b1f      	ldr	r3, [pc, #124]	@ (800173c <ServiceI2CRequests+0xe8>)
 80016be:	681b      	ldr	r3, [r3, #0]
 80016c0:	429a      	cmp	r2, r3
 80016c2:	dd24      	ble.n	800170e <ServiceI2CRequests+0xba>
if (i2c->ISR & I2C_ISR_TXIS)
 80016c4:	683b      	ldr	r3, [r7, #0]
 80016c6:	699b      	ldr	r3, [r3, #24]
 80016c8:	f003 0302 	and.w	r3, r3, #2
 80016cc:	2b00      	cmp	r3, #0
 80016ce:	d00b      	beq.n	80016e8 <ServiceI2CRequests+0x94>
// Copy transmit data from memory buffer to hardware buffer
i2c->TXDR = q->data[n++];
 80016d0:	687b      	ldr	r3, [r7, #4]
 80016d2:	689a      	ldr	r2, [r3, #8]
 80016d4:	4b19      	ldr	r3, [pc, #100]	@ (800173c <ServiceI2CRequests+0xe8>)
 80016d6:	681b      	ldr	r3, [r3, #0]
 80016d8:	1c59      	adds	r1, r3, #1
 80016da:	4818      	ldr	r0, [pc, #96]	@ (800173c <ServiceI2CRequests+0xe8>)
 80016dc:	6001      	str	r1, [r0, #0]
 80016de:	4413      	add	r3, r2
 80016e0:	781b      	ldrb	r3, [r3, #0]
 80016e2:	461a      	mov	r2, r3
 80016e4:	683b      	ldr	r3, [r7, #0]
 80016e6:	629a      	str	r2, [r3, #40]	@ 0x28
if (i2c->ISR & I2C_ISR_RXNE)
 80016e8:	683b      	ldr	r3, [r7, #0]
 80016ea:	699b      	ldr	r3, [r3, #24]
 80016ec:	f003 0304 	and.w	r3, r3, #4
 80016f0:	2b00      	cmp	r3, #0
 80016f2:	d01c      	beq.n	800172e <ServiceI2CRequests+0xda>
// Copy receive data from hardware buffer to memory buffer
q->data[n++] = i2c->RXDR;
 80016f4:	683b      	ldr	r3, [r7, #0]
 80016f6:	6a5c      	ldr	r4, [r3, #36]	@ 0x24
 80016f8:	687b      	ldr	r3, [r7, #4]
 80016fa:	689a      	ldr	r2, [r3, #8]
 80016fc:	4b0f      	ldr	r3, [pc, #60]	@ (800173c <ServiceI2CRequests+0xe8>)
 80016fe:	681b      	ldr	r3, [r3, #0]
 8001700:	1c59      	adds	r1, r3, #1
 8001702:	480e      	ldr	r0, [pc, #56]	@ (800173c <ServiceI2CRequests+0xe8>)
 8001704:	6001      	str	r1, [r0, #0]
 8001706:	4413      	add	r3, r2
 8001708:	b2e2      	uxtb	r2, r4
 800170a:	701a      	strb	r2, [r3, #0]
 800170c:	e00f      	b.n	800172e <ServiceI2CRequests+0xda>
}
else {
// Remove transfer from head of queue
head = q->next;
 800170e:	687b      	ldr	r3, [r7, #4]
 8001710:	695b      	ldr	r3, [r3, #20]
 8001712:	4a09      	ldr	r2, [pc, #36]	@ (8001738 <ServiceI2CRequests+0xe4>)
 8001714:	6013      	str	r3, [r2, #0]
q->next = NULL;
 8001716:	687b      	ldr	r3, [r7, #4]
 8001718:	2200      	movs	r2, #0
 800171a:	615a      	str	r2, [r3, #20]
q->busy = 0; // Mark transfer as complete
 800171c:	687b      	ldr	r3, [r7, #4]
 800171e:	2200      	movs	r2, #0
 8001720:	745a      	strb	r2, [r3, #17]
n = -1; // Prepare for next transfer
 8001722:	4b06      	ldr	r3, [pc, #24]	@ (800173c <ServiceI2CRequests+0xe8>)
 8001724:	f04f 32ff 	mov.w	r2, #4294967295
 8001728:	601a      	str	r2, [r3, #0]
 800172a:	e000      	b.n	800172e <ServiceI2CRequests+0xda>
return; // Nothing to do right now
 800172c:	bf00      	nop
}
}
 800172e:	3708      	adds	r7, #8
 8001730:	46bd      	mov	sp, r7
 8001732:	bc90      	pop	{r4, r7}
 8001734:	4770      	bx	lr
 8001736:	bf00      	nop
 8001738:	200002c8 	.word	0x200002c8
 800173c:	20000148 	.word	0x20000148

08001740 <main>:
// App headers
#include "alarm.h"
#include "game.h"

int main(void)
{
 8001740:	b580      	push	{r7, lr}
 8001742:	af00      	add	r7, sp, #0
	// Initialize apps
	Init_Alarm();
 8001744:	f7fe fd74 	bl	8000230 <Init_Alarm>
	Init_Game();
 8001748:	f7ff f87a 	bl	8000840 <Init_Game>

	// Enable system services
	StartSysTick();
 800174c:	f000 f8d2 	bl	80018f4 <StartSysTick>

	while (1) {
		// Run apps
		Task_Alarm();
 8001750:	f7fe fdfa 	bl	8000348 <Task_Alarm>
		Task_Game();
 8001754:	f7ff f88e 	bl	8000874 <Task_Game>
		// Housekeeping
		UpdateIOExpanders();
 8001758:	f7ff fd72 	bl	8001240 <UpdateIOExpanders>
		ServiceI2CRequests();
 800175c:	f7ff ff7a 	bl	8001654 <ServiceI2CRequests>
		WaitForSysTick();
 8001760:	f000 f8f4 	bl	800194c <WaitForSysTick>
		Task_Alarm();
 8001764:	bf00      	nop
 8001766:	e7f3      	b.n	8001750 <main+0x10>

08001768 <_getpid>:
void initialise_monitor_handles()
{
}

int _getpid(void)
{
 8001768:	b480      	push	{r7}
 800176a:	af00      	add	r7, sp, #0
  return 1;
 800176c:	2301      	movs	r3, #1
}
 800176e:	4618      	mov	r0, r3
 8001770:	46bd      	mov	sp, r7
 8001772:	f85d 7b04 	ldr.w	r7, [sp], #4
 8001776:	4770      	bx	lr

08001778 <_kill>:

int _kill(int pid, int sig)
{
 8001778:	b580      	push	{r7, lr}
 800177a:	b082      	sub	sp, #8
 800177c:	af00      	add	r7, sp, #0
 800177e:	6078      	str	r0, [r7, #4]
 8001780:	6039      	str	r1, [r7, #0]
  (void)pid;
  (void)sig;
  errno = EINVAL;
 8001782:	f000 fc1b 	bl	8001fbc <__errno>
 8001786:	4603      	mov	r3, r0
 8001788:	2216      	movs	r2, #22
 800178a:	601a      	str	r2, [r3, #0]
  return -1;
 800178c:	f04f 33ff 	mov.w	r3, #4294967295
}
 8001790:	4618      	mov	r0, r3
 8001792:	3708      	adds	r7, #8
 8001794:	46bd      	mov	sp, r7
 8001796:	bd80      	pop	{r7, pc}

08001798 <_exit>:

void _exit (int status)
{
 8001798:	b580      	push	{r7, lr}
 800179a:	b082      	sub	sp, #8
 800179c:	af00      	add	r7, sp, #0
 800179e:	6078      	str	r0, [r7, #4]
  _kill(status, -1);
 80017a0:	f04f 31ff 	mov.w	r1, #4294967295
 80017a4:	6878      	ldr	r0, [r7, #4]
 80017a6:	f7ff ffe7 	bl	8001778 <_kill>
  while (1) {}    /* Make sure we hang here */
 80017aa:	bf00      	nop
 80017ac:	e7fd      	b.n	80017aa <_exit+0x12>

080017ae <_read>:
}

__attribute__((weak)) int _read(int file, char *ptr, int len)
{
 80017ae:	b580      	push	{r7, lr}
 80017b0:	b086      	sub	sp, #24
 80017b2:	af00      	add	r7, sp, #0
 80017b4:	60f8      	str	r0, [r7, #12]
 80017b6:	60b9      	str	r1, [r7, #8]
 80017b8:	607a      	str	r2, [r7, #4]
  (void)file;
  int DataIdx;

  for (DataIdx = 0; DataIdx < len; DataIdx++)
 80017ba:	2300      	movs	r3, #0
 80017bc:	617b      	str	r3, [r7, #20]
 80017be:	e00a      	b.n	80017d6 <_read+0x28>
  {
    *ptr++ = __io_getchar();
 80017c0:	f3af 8000 	nop.w
 80017c4:	4601      	mov	r1, r0
 80017c6:	68bb      	ldr	r3, [r7, #8]
 80017c8:	1c5a      	adds	r2, r3, #1
 80017ca:	60ba      	str	r2, [r7, #8]
 80017cc:	b2ca      	uxtb	r2, r1
 80017ce:	701a      	strb	r2, [r3, #0]
  for (DataIdx = 0; DataIdx < len; DataIdx++)
 80017d0:	697b      	ldr	r3, [r7, #20]
 80017d2:	3301      	adds	r3, #1
 80017d4:	617b      	str	r3, [r7, #20]
 80017d6:	697a      	ldr	r2, [r7, #20]
 80017d8:	687b      	ldr	r3, [r7, #4]
 80017da:	429a      	cmp	r2, r3
 80017dc:	dbf0      	blt.n	80017c0 <_read+0x12>
  }

  return len;
 80017de:	687b      	ldr	r3, [r7, #4]
}
 80017e0:	4618      	mov	r0, r3
 80017e2:	3718      	adds	r7, #24
 80017e4:	46bd      	mov	sp, r7
 80017e6:	bd80      	pop	{r7, pc}

080017e8 <_write>:

__attribute__((weak)) int _write(int file, char *ptr, int len)
{
 80017e8:	b580      	push	{r7, lr}
 80017ea:	b086      	sub	sp, #24
 80017ec:	af00      	add	r7, sp, #0
 80017ee:	60f8      	str	r0, [r7, #12]
 80017f0:	60b9      	str	r1, [r7, #8]
 80017f2:	607a      	str	r2, [r7, #4]
  (void)file;
  int DataIdx;

  for (DataIdx = 0; DataIdx < len; DataIdx++)
 80017f4:	2300      	movs	r3, #0
 80017f6:	617b      	str	r3, [r7, #20]
 80017f8:	e009      	b.n	800180e <_write+0x26>
  {
    __io_putchar(*ptr++);
 80017fa:	68bb      	ldr	r3, [r7, #8]
 80017fc:	1c5a      	adds	r2, r3, #1
 80017fe:	60ba      	str	r2, [r7, #8]
 8001800:	781b      	ldrb	r3, [r3, #0]
 8001802:	4618      	mov	r0, r3
 8001804:	f7fe ff45 	bl	8000692 <__io_putchar>
  for (DataIdx = 0; DataIdx < len; DataIdx++)
 8001808:	697b      	ldr	r3, [r7, #20]
 800180a:	3301      	adds	r3, #1
 800180c:	617b      	str	r3, [r7, #20]
 800180e:	697a      	ldr	r2, [r7, #20]
 8001810:	687b      	ldr	r3, [r7, #4]
 8001812:	429a      	cmp	r2, r3
 8001814:	dbf1      	blt.n	80017fa <_write+0x12>
  }
  return len;
 8001816:	687b      	ldr	r3, [r7, #4]
}
 8001818:	4618      	mov	r0, r3
 800181a:	3718      	adds	r7, #24
 800181c:	46bd      	mov	sp, r7
 800181e:	bd80      	pop	{r7, pc}

08001820 <_close>:

int _close(int file)
{
 8001820:	b480      	push	{r7}
 8001822:	b083      	sub	sp, #12
 8001824:	af00      	add	r7, sp, #0
 8001826:	6078      	str	r0, [r7, #4]
  (void)file;
  return -1;
 8001828:	f04f 33ff 	mov.w	r3, #4294967295
}
 800182c:	4618      	mov	r0, r3
 800182e:	370c      	adds	r7, #12
 8001830:	46bd      	mov	sp, r7
 8001832:	f85d 7b04 	ldr.w	r7, [sp], #4
 8001836:	4770      	bx	lr

08001838 <_fstat>:


int _fstat(int file, struct stat *st)
{
 8001838:	b480      	push	{r7}
 800183a:	b083      	sub	sp, #12
 800183c:	af00      	add	r7, sp, #0
 800183e:	6078      	str	r0, [r7, #4]
 8001840:	6039      	str	r1, [r7, #0]
  (void)file;
  st->st_mode = S_IFCHR;
 8001842:	683b      	ldr	r3, [r7, #0]
 8001844:	f44f 5200 	mov.w	r2, #8192	@ 0x2000
 8001848:	605a      	str	r2, [r3, #4]
  return 0;
 800184a:	2300      	movs	r3, #0
}
 800184c:	4618      	mov	r0, r3
 800184e:	370c      	adds	r7, #12
 8001850:	46bd      	mov	sp, r7
 8001852:	f85d 7b04 	ldr.w	r7, [sp], #4
 8001856:	4770      	bx	lr

08001858 <_isatty>:

int _isatty(int file)
{
 8001858:	b480      	push	{r7}
 800185a:	b083      	sub	sp, #12
 800185c:	af00      	add	r7, sp, #0
 800185e:	6078      	str	r0, [r7, #4]
  (void)file;
  return 1;
 8001860:	2301      	movs	r3, #1
}
 8001862:	4618      	mov	r0, r3
 8001864:	370c      	adds	r7, #12
 8001866:	46bd      	mov	sp, r7
 8001868:	f85d 7b04 	ldr.w	r7, [sp], #4
 800186c:	4770      	bx	lr

0800186e <_lseek>:

int _lseek(int file, int ptr, int dir)
{
 800186e:	b480      	push	{r7}
 8001870:	b085      	sub	sp, #20
 8001872:	af00      	add	r7, sp, #0
 8001874:	60f8      	str	r0, [r7, #12]
 8001876:	60b9      	str	r1, [r7, #8]
 8001878:	607a      	str	r2, [r7, #4]
  (void)file;
  (void)ptr;
  (void)dir;
  return 0;
 800187a:	2300      	movs	r3, #0
}
 800187c:	4618      	mov	r0, r3
 800187e:	3714      	adds	r7, #20
 8001880:	46bd      	mov	sp, r7
 8001882:	f85d 7b04 	ldr.w	r7, [sp], #4
 8001886:	4770      	bx	lr

08001888 <_sbrk>:
 *
 * @param incr Memory size
 * @return Pointer to allocated memory
 */
void *_sbrk(ptrdiff_t incr)
{
 8001888:	b580      	push	{r7, lr}
 800188a:	b086      	sub	sp, #24
 800188c:	af00      	add	r7, sp, #0
 800188e:	6078      	str	r0, [r7, #4]
  extern uint8_t _end; /* Symbol defined in the linker script */
  extern uint8_t _estack; /* Symbol defined in the linker script */
  extern uint32_t _Min_Stack_Size; /* Symbol defined in the linker script */
  const uint32_t stack_limit = (uint32_t)&_estack - (uint32_t)&_Min_Stack_Size;
 8001890:	4a14      	ldr	r2, [pc, #80]	@ (80018e4 <_sbrk+0x5c>)
 8001892:	4b15      	ldr	r3, [pc, #84]	@ (80018e8 <_sbrk+0x60>)
 8001894:	1ad3      	subs	r3, r2, r3
 8001896:	617b      	str	r3, [r7, #20]
  const uint8_t *max_heap = (uint8_t *)stack_limit;
 8001898:	697b      	ldr	r3, [r7, #20]
 800189a:	613b      	str	r3, [r7, #16]
  uint8_t *prev_heap_end;

  /* Initialize heap end at first call */
  if (NULL == __sbrk_heap_end)
 800189c:	4b13      	ldr	r3, [pc, #76]	@ (80018ec <_sbrk+0x64>)
 800189e:	681b      	ldr	r3, [r3, #0]
 80018a0:	2b00      	cmp	r3, #0
 80018a2:	d102      	bne.n	80018aa <_sbrk+0x22>
  {
    __sbrk_heap_end = &_end;
 80018a4:	4b11      	ldr	r3, [pc, #68]	@ (80018ec <_sbrk+0x64>)
 80018a6:	4a12      	ldr	r2, [pc, #72]	@ (80018f0 <_sbrk+0x68>)
 80018a8:	601a      	str	r2, [r3, #0]
  }

  /* Protect heap from growing into the reserved MSP stack */
  if (__sbrk_heap_end + incr > max_heap)
 80018aa:	4b10      	ldr	r3, [pc, #64]	@ (80018ec <_sbrk+0x64>)
 80018ac:	681a      	ldr	r2, [r3, #0]
 80018ae:	687b      	ldr	r3, [r7, #4]
 80018b0:	4413      	add	r3, r2
 80018b2:	693a      	ldr	r2, [r7, #16]
 80018b4:	429a      	cmp	r2, r3
 80018b6:	d207      	bcs.n	80018c8 <_sbrk+0x40>
  {
    errno = ENOMEM;
 80018b8:	f000 fb80 	bl	8001fbc <__errno>
 80018bc:	4603      	mov	r3, r0
 80018be:	220c      	movs	r2, #12
 80018c0:	601a      	str	r2, [r3, #0]
    return (void *)-1;
 80018c2:	f04f 33ff 	mov.w	r3, #4294967295
 80018c6:	e009      	b.n	80018dc <_sbrk+0x54>
  }

  prev_heap_end = __sbrk_heap_end;
 80018c8:	4b08      	ldr	r3, [pc, #32]	@ (80018ec <_sbrk+0x64>)
 80018ca:	681b      	ldr	r3, [r3, #0]
 80018cc:	60fb      	str	r3, [r7, #12]
  __sbrk_heap_end += incr;
 80018ce:	4b07      	ldr	r3, [pc, #28]	@ (80018ec <_sbrk+0x64>)
 80018d0:	681a      	ldr	r2, [r3, #0]
 80018d2:	687b      	ldr	r3, [r7, #4]
 80018d4:	4413      	add	r3, r2
 80018d6:	4a05      	ldr	r2, [pc, #20]	@ (80018ec <_sbrk+0x64>)
 80018d8:	6013      	str	r3, [r2, #0]

  return (void *)prev_heap_end;
 80018da:	68fb      	ldr	r3, [r7, #12]
}
 80018dc:	4618      	mov	r0, r3
 80018de:	3718      	adds	r7, #24
 80018e0:	46bd      	mov	sp, r7
 80018e2:	bd80      	pop	{r7, pc}
 80018e4:	20030000 	.word	0x20030000
 80018e8:	00000400 	.word	0x00000400
 80018ec:	200002d0 	.word	0x200002d0
 80018f0:	20000428 	.word	0x20000428

080018f4 <StartSysTick>:
// Manage the system timer
#include "systick.h"
#define SYSTICKS 4000 // 1ms with 4MHz clock
static volatile Time_t sysTime = 0;
void StartSysTick() {
 80018f4:	b480      	push	{r7}
 80018f6:	af00      	add	r7, sp, #0
	sysTime = 0;
 80018f8:	4b0a      	ldr	r3, [pc, #40]	@ (8001924 <StartSysTick+0x30>)
 80018fa:	2200      	movs	r2, #0
 80018fc:	601a      	str	r2, [r3, #0]
	SysTick->LOAD = (uint32_t) (SYSTICKS - 1); // Set reload register value
 80018fe:	4b0a      	ldr	r3, [pc, #40]	@ (8001928 <StartSysTick+0x34>)
 8001900:	f640 729f 	movw	r2, #3999	@ 0xf9f
 8001904:	605a      	str	r2, [r3, #4]
	SCB->SHPR[12 + SysTick_IRQn] = 7 << 5; // Set interrupt priority
 8001906:	4b09      	ldr	r3, [pc, #36]	@ (800192c <StartSysTick+0x38>)
 8001908:	22e0      	movs	r2, #224	@ 0xe0
 800190a:	f883 2023 	strb.w	r2, [r3, #35]	@ 0x23
	SysTick->VAL = 0;
 800190e:	4b06      	ldr	r3, [pc, #24]	@ (8001928 <StartSysTick+0x34>)
 8001910:	2200      	movs	r2, #0
 8001912:	609a      	str	r2, [r3, #8]
	SysTick->CTRL = SysTick_CTRL_CLKSOURCE_Msk | SysTick_CTRL_TICKINT_Msk
 8001914:	4b04      	ldr	r3, [pc, #16]	@ (8001928 <StartSysTick+0x34>)
 8001916:	2207      	movs	r2, #7
 8001918:	601a      	str	r2, [r3, #0]
			| SysTick_CTRL_ENABLE_Msk;
}
 800191a:	bf00      	nop
 800191c:	46bd      	mov	sp, r7
 800191e:	f85d 7b04 	ldr.w	r7, [sp], #4
 8001922:	4770      	bx	lr
 8001924:	200002d4 	.word	0x200002d4
 8001928:	e000e010 	.word	0xe000e010
 800192c:	e000ed00 	.word	0xe000ed00

08001930 <SysTick_Handler>:
// Interrupt handler
void SysTick_Handler(void) {
 8001930:	b480      	push	{r7}
 8001932:	af00      	add	r7, sp, #0
	sysTime++;
 8001934:	4b04      	ldr	r3, [pc, #16]	@ (8001948 <SysTick_Handler+0x18>)
 8001936:	681b      	ldr	r3, [r3, #0]
 8001938:	3301      	adds	r3, #1
 800193a:	4a03      	ldr	r2, [pc, #12]	@ (8001948 <SysTick_Handler+0x18>)
 800193c:	6013      	str	r3, [r2, #0]
}
 800193e:	bf00      	nop
 8001940:	46bd      	mov	sp, r7
 8001942:	f85d 7b04 	ldr.w	r7, [sp], #4
 8001946:	4770      	bx	lr
 8001948:	200002d4 	.word	0x200002d4

0800194c <WaitForSysTick>:
// Wait for system time to change
void WaitForSysTick(void) {
 800194c:	b480      	push	{r7}
 800194e:	b083      	sub	sp, #12
 8001950:	af00      	add	r7, sp, #0
	int wasTime = sysTime;
 8001952:	4b08      	ldr	r3, [pc, #32]	@ (8001974 <WaitForSysTick+0x28>)
 8001954:	681b      	ldr	r3, [r3, #0]
 8001956:	607b      	str	r3, [r7, #4]
	while (sysTime == wasTime)
 8001958:	e000      	b.n	800195c <WaitForSysTick+0x10>
// Instruction to keep CPU asleep until next interrupt
		__asm volatile ("wfi");
 800195a:	bf30      	wfi
	while (sysTime == wasTime)
 800195c:	4b05      	ldr	r3, [pc, #20]	@ (8001974 <WaitForSysTick+0x28>)
 800195e:	681a      	ldr	r2, [r3, #0]
 8001960:	687b      	ldr	r3, [r7, #4]
 8001962:	429a      	cmp	r2, r3
 8001964:	d0f9      	beq.n	800195a <WaitForSysTick+0xe>
}
 8001966:	bf00      	nop
 8001968:	bf00      	nop
 800196a:	370c      	adds	r7, #12
 800196c:	46bd      	mov	sp, r7
 800196e:	f85d 7b04 	ldr.w	r7, [sp], #4
 8001972:	4770      	bx	lr
 8001974:	200002d4 	.word	0x200002d4

08001978 <TimeNow>:
void msDelay(int t) {
	for (int i = 0; i < t; i++)
		WaitForSysTick();
}
// Obtain the current system time
Time_t TimeNow(void) {
 8001978:	b480      	push	{r7}
 800197a:	af00      	add	r7, sp, #0
	return sysTime;
 800197c:	4b03      	ldr	r3, [pc, #12]	@ (800198c <TimeNow+0x14>)
 800197e:	681b      	ldr	r3, [r3, #0]
}
 8001980:	4618      	mov	r0, r3
 8001982:	46bd      	mov	sp, r7
 8001984:	f85d 7b04 	ldr.w	r7, [sp], #4
 8001988:	4770      	bx	lr
 800198a:	bf00      	nop
 800198c:	200002d4 	.word	0x200002d4

08001990 <TimePassed>:
// Calculate the elapsed system time since a previous event
Time_t TimePassed(Time_t since) {
 8001990:	b480      	push	{r7}
 8001992:	b085      	sub	sp, #20
 8001994:	af00      	add	r7, sp, #0
 8001996:	6078      	str	r0, [r7, #4]
	Time_t now = sysTime;
 8001998:	4b09      	ldr	r3, [pc, #36]	@ (80019c0 <TimePassed+0x30>)
 800199a:	681b      	ldr	r3, [r3, #0]
 800199c:	60fb      	str	r3, [r7, #12]
	if (now >= since)
 800199e:	68fa      	ldr	r2, [r7, #12]
 80019a0:	687b      	ldr	r3, [r7, #4]
 80019a2:	429a      	cmp	r2, r3
 80019a4:	d303      	bcc.n	80019ae <TimePassed+0x1e>
		return now - since;
 80019a6:	68fa      	ldr	r2, [r7, #12]
 80019a8:	687b      	ldr	r3, [r7, #4]
 80019aa:	1ad3      	subs	r3, r2, r3
 80019ac:	e002      	b.n	80019b4 <TimePassed+0x24>
	else
		// Deal with rollover
		return now + 1 + TIME_MAX - since;
 80019ae:	68fa      	ldr	r2, [r7, #12]
 80019b0:	687b      	ldr	r3, [r7, #4]
 80019b2:	1ad3      	subs	r3, r2, r3
}
 80019b4:	4618      	mov	r0, r3
 80019b6:	3714      	adds	r7, #20
 80019b8:	46bd      	mov	sp, r7
 80019ba:	f85d 7b04 	ldr.w	r7, [sp], #4
 80019be:	4770      	bx	lr
 80019c0:	200002d4 	.word	0x200002d4

080019c4 <Reset_Handler>:

  .section .text.Reset_Handler
  .weak Reset_Handler
  .type Reset_Handler, %function
Reset_Handler:
  ldr   r0, =_estack
 80019c4:	480d      	ldr	r0, [pc, #52]	@ (80019fc <LoopForever+0x2>)
  mov   sp, r0          /* set stack pointer */
 80019c6:	4685      	mov	sp, r0
/* Call the clock system initialization function.*/
  bl  SystemInit
 80019c8:	f3af 8000 	nop.w

/* Copy the data segment initializers from flash to SRAM */
  ldr r0, =_sdata
 80019cc:	480c      	ldr	r0, [pc, #48]	@ (8001a00 <LoopForever+0x6>)
  ldr r1, =_edata
 80019ce:	490d      	ldr	r1, [pc, #52]	@ (8001a04 <LoopForever+0xa>)
  ldr r2, =_sidata
 80019d0:	4a0d      	ldr	r2, [pc, #52]	@ (8001a08 <LoopForever+0xe>)
  movs r3, #0
 80019d2:	2300      	movs	r3, #0
  b LoopCopyDataInit
 80019d4:	e002      	b.n	80019dc <LoopCopyDataInit>

080019d6 <CopyDataInit>:

CopyDataInit:
  ldr r4, [r2, r3]
 80019d6:	58d4      	ldr	r4, [r2, r3]
  str r4, [r0, r3]
 80019d8:	50c4      	str	r4, [r0, r3]
  adds r3, r3, #4
 80019da:	3304      	adds	r3, #4

080019dc <LoopCopyDataInit>:

LoopCopyDataInit:
  adds r4, r0, r3
 80019dc:	18c4      	adds	r4, r0, r3
  cmp r4, r1
 80019de:	428c      	cmp	r4, r1
  bcc CopyDataInit
 80019e0:	d3f9      	bcc.n	80019d6 <CopyDataInit>

/* Zero fill the bss segment. */
  ldr r2, =_sbss
 80019e2:	4a0a      	ldr	r2, [pc, #40]	@ (8001a0c <LoopForever+0x12>)
  ldr r4, =_ebss
 80019e4:	4c0a      	ldr	r4, [pc, #40]	@ (8001a10 <LoopForever+0x16>)
  movs r3, #0
 80019e6:	2300      	movs	r3, #0
  b LoopFillZerobss
 80019e8:	e001      	b.n	80019ee <LoopFillZerobss>

080019ea <FillZerobss>:

FillZerobss:
  str  r3, [r2]
 80019ea:	6013      	str	r3, [r2, #0]
  adds r2, r2, #4
 80019ec:	3204      	adds	r2, #4

080019ee <LoopFillZerobss>:

LoopFillZerobss:
  cmp r2, r4
 80019ee:	42a2      	cmp	r2, r4
  bcc FillZerobss
 80019f0:	d3fb      	bcc.n	80019ea <FillZerobss>


/* Call static constructors */
  bl __libc_init_array
 80019f2:	f000 fae9 	bl	8001fc8 <__libc_init_array>
/* Call the application's entry point.*/

  bl main
 80019f6:	f7ff fea3 	bl	8001740 <main>

080019fa <LoopForever>:

LoopForever:
  b LoopForever
 80019fa:	e7fe      	b.n	80019fa <LoopForever>
  ldr   r0, =_estack
 80019fc:	20030000 	.word	0x20030000
  ldr r0, =_sdata
 8001a00:	20000000 	.word	0x20000000
  ldr r1, =_edata
 8001a04:	200001a8 	.word	0x200001a8
  ldr r2, =_sidata
 8001a08:	0800314c 	.word	0x0800314c
  ldr r2, =_sbss
 8001a0c:	200001a8 	.word	0x200001a8
  ldr r4, =_ebss
 8001a10:	20000424 	.word	0x20000424

08001a14 <ADC1_2_IRQHandler>:
 * @retval : None
*/
  .section .text.Default_Handler,"ax",%progbits
Default_Handler:
Infinite_Loop:
  b Infinite_Loop
 8001a14:	e7fe      	b.n	8001a14 <ADC1_2_IRQHandler>
	...

08001a18 <rand>:
 8001a18:	4b16      	ldr	r3, [pc, #88]	@ (8001a74 <rand+0x5c>)
 8001a1a:	b510      	push	{r4, lr}
 8001a1c:	681c      	ldr	r4, [r3, #0]
 8001a1e:	6b23      	ldr	r3, [r4, #48]	@ 0x30
 8001a20:	b9b3      	cbnz	r3, 8001a50 <rand+0x38>
 8001a22:	2018      	movs	r0, #24
 8001a24:	f000 fb60 	bl	80020e8 <malloc>
 8001a28:	4602      	mov	r2, r0
 8001a2a:	6320      	str	r0, [r4, #48]	@ 0x30
 8001a2c:	b920      	cbnz	r0, 8001a38 <rand+0x20>
 8001a2e:	4b12      	ldr	r3, [pc, #72]	@ (8001a78 <rand+0x60>)
 8001a30:	2152      	movs	r1, #82	@ 0x52
 8001a32:	4812      	ldr	r0, [pc, #72]	@ (8001a7c <rand+0x64>)
 8001a34:	f000 faf0 	bl	8002018 <__assert_func>
 8001a38:	4911      	ldr	r1, [pc, #68]	@ (8001a80 <rand+0x68>)
 8001a3a:	4b12      	ldr	r3, [pc, #72]	@ (8001a84 <rand+0x6c>)
 8001a3c:	e9c0 1300 	strd	r1, r3, [r0]
 8001a40:	4b11      	ldr	r3, [pc, #68]	@ (8001a88 <rand+0x70>)
 8001a42:	2100      	movs	r1, #0
 8001a44:	6083      	str	r3, [r0, #8]
 8001a46:	230b      	movs	r3, #11
 8001a48:	8183      	strh	r3, [r0, #12]
 8001a4a:	2001      	movs	r0, #1
 8001a4c:	e9c2 0104 	strd	r0, r1, [r2, #16]
 8001a50:	6b21      	ldr	r1, [r4, #48]	@ 0x30
 8001a52:	480e      	ldr	r0, [pc, #56]	@ (8001a8c <rand+0x74>)
 8001a54:	690b      	ldr	r3, [r1, #16]
 8001a56:	694c      	ldr	r4, [r1, #20]
 8001a58:	4a0d      	ldr	r2, [pc, #52]	@ (8001a90 <rand+0x78>)
 8001a5a:	4358      	muls	r0, r3
 8001a5c:	fb02 0004 	mla	r0, r2, r4, r0
 8001a60:	fba3 3202 	umull	r3, r2, r3, r2
 8001a64:	3301      	adds	r3, #1
 8001a66:	eb40 0002 	adc.w	r0, r0, r2
 8001a6a:	e9c1 3004 	strd	r3, r0, [r1, #16]
 8001a6e:	f020 4000 	bic.w	r0, r0, #2147483648	@ 0x80000000
 8001a72:	bd10      	pop	{r4, pc}
 8001a74:	20000158 	.word	0x20000158
 8001a78:	08003064 	.word	0x08003064
 8001a7c:	0800307b 	.word	0x0800307b
 8001a80:	abcd330e 	.word	0xabcd330e
 8001a84:	e66d1234 	.word	0xe66d1234
 8001a88:	0005deec 	.word	0x0005deec
 8001a8c:	5851f42d 	.word	0x5851f42d
 8001a90:	4c957f2d 	.word	0x4c957f2d

08001a94 <std>:
 8001a94:	2300      	movs	r3, #0
 8001a96:	b510      	push	{r4, lr}
 8001a98:	4604      	mov	r4, r0
 8001a9a:	6083      	str	r3, [r0, #8]
 8001a9c:	8181      	strh	r1, [r0, #12]
 8001a9e:	4619      	mov	r1, r3
 8001aa0:	6643      	str	r3, [r0, #100]	@ 0x64
 8001aa2:	81c2      	strh	r2, [r0, #14]
 8001aa4:	2208      	movs	r2, #8
 8001aa6:	6183      	str	r3, [r0, #24]
 8001aa8:	e9c0 3300 	strd	r3, r3, [r0]
 8001aac:	e9c0 3304 	strd	r3, r3, [r0, #16]
 8001ab0:	305c      	adds	r0, #92	@ 0x5c
 8001ab2:	f000 fa35 	bl	8001f20 <memset>
 8001ab6:	4b0d      	ldr	r3, [pc, #52]	@ (8001aec <std+0x58>)
 8001ab8:	6224      	str	r4, [r4, #32]
 8001aba:	6263      	str	r3, [r4, #36]	@ 0x24
 8001abc:	4b0c      	ldr	r3, [pc, #48]	@ (8001af0 <std+0x5c>)
 8001abe:	62a3      	str	r3, [r4, #40]	@ 0x28
 8001ac0:	4b0c      	ldr	r3, [pc, #48]	@ (8001af4 <std+0x60>)
 8001ac2:	62e3      	str	r3, [r4, #44]	@ 0x2c
 8001ac4:	4b0c      	ldr	r3, [pc, #48]	@ (8001af8 <std+0x64>)
 8001ac6:	6323      	str	r3, [r4, #48]	@ 0x30
 8001ac8:	4b0c      	ldr	r3, [pc, #48]	@ (8001afc <std+0x68>)
 8001aca:	429c      	cmp	r4, r3
 8001acc:	d006      	beq.n	8001adc <std+0x48>
 8001ace:	f103 0268 	add.w	r2, r3, #104	@ 0x68
 8001ad2:	4294      	cmp	r4, r2
 8001ad4:	d002      	beq.n	8001adc <std+0x48>
 8001ad6:	33d0      	adds	r3, #208	@ 0xd0
 8001ad8:	429c      	cmp	r4, r3
 8001ada:	d105      	bne.n	8001ae8 <std+0x54>
 8001adc:	f104 0058 	add.w	r0, r4, #88	@ 0x58
 8001ae0:	e8bd 4010 	ldmia.w	sp!, {r4, lr}
 8001ae4:	f000 ba94 	b.w	8002010 <__retarget_lock_init_recursive>
 8001ae8:	bd10      	pop	{r4, pc}
 8001aea:	bf00      	nop
 8001aec:	08001cf9 	.word	0x08001cf9
 8001af0:	08001d1b 	.word	0x08001d1b
 8001af4:	08001d53 	.word	0x08001d53
 8001af8:	08001d77 	.word	0x08001d77
 8001afc:	200002d8 	.word	0x200002d8

08001b00 <stdio_exit_handler>:
 8001b00:	4a02      	ldr	r2, [pc, #8]	@ (8001b0c <stdio_exit_handler+0xc>)
 8001b02:	4903      	ldr	r1, [pc, #12]	@ (8001b10 <stdio_exit_handler+0x10>)
 8001b04:	4803      	ldr	r0, [pc, #12]	@ (8001b14 <stdio_exit_handler+0x14>)
 8001b06:	f000 b869 	b.w	8001bdc <_fwalk_sglue>
 8001b0a:	bf00      	nop
 8001b0c:	2000014c 	.word	0x2000014c
 8001b10:	08002bb1 	.word	0x08002bb1
 8001b14:	2000015c 	.word	0x2000015c

08001b18 <cleanup_stdio>:
 8001b18:	6841      	ldr	r1, [r0, #4]
 8001b1a:	4b0c      	ldr	r3, [pc, #48]	@ (8001b4c <cleanup_stdio+0x34>)
 8001b1c:	4299      	cmp	r1, r3
 8001b1e:	b510      	push	{r4, lr}
 8001b20:	4604      	mov	r4, r0
 8001b22:	d001      	beq.n	8001b28 <cleanup_stdio+0x10>
 8001b24:	f001 f844 	bl	8002bb0 <_fflush_r>
 8001b28:	68a1      	ldr	r1, [r4, #8]
 8001b2a:	4b09      	ldr	r3, [pc, #36]	@ (8001b50 <cleanup_stdio+0x38>)
 8001b2c:	4299      	cmp	r1, r3
 8001b2e:	d002      	beq.n	8001b36 <cleanup_stdio+0x1e>
 8001b30:	4620      	mov	r0, r4
 8001b32:	f001 f83d 	bl	8002bb0 <_fflush_r>
 8001b36:	68e1      	ldr	r1, [r4, #12]
 8001b38:	4b06      	ldr	r3, [pc, #24]	@ (8001b54 <cleanup_stdio+0x3c>)
 8001b3a:	4299      	cmp	r1, r3
 8001b3c:	d004      	beq.n	8001b48 <cleanup_stdio+0x30>
 8001b3e:	4620      	mov	r0, r4
 8001b40:	e8bd 4010 	ldmia.w	sp!, {r4, lr}
 8001b44:	f001 b834 	b.w	8002bb0 <_fflush_r>
 8001b48:	bd10      	pop	{r4, pc}
 8001b4a:	bf00      	nop
 8001b4c:	200002d8 	.word	0x200002d8
 8001b50:	20000340 	.word	0x20000340
 8001b54:	200003a8 	.word	0x200003a8

08001b58 <global_stdio_init.part.0>:
 8001b58:	b510      	push	{r4, lr}
 8001b5a:	4b0b      	ldr	r3, [pc, #44]	@ (8001b88 <global_stdio_init.part.0+0x30>)
 8001b5c:	2104      	movs	r1, #4
 8001b5e:	4c0b      	ldr	r4, [pc, #44]	@ (8001b8c <global_stdio_init.part.0+0x34>)
 8001b60:	4a0b      	ldr	r2, [pc, #44]	@ (8001b90 <global_stdio_init.part.0+0x38>)
 8001b62:	4620      	mov	r0, r4
 8001b64:	601a      	str	r2, [r3, #0]
 8001b66:	2200      	movs	r2, #0
 8001b68:	f7ff ff94 	bl	8001a94 <std>
 8001b6c:	f104 0068 	add.w	r0, r4, #104	@ 0x68
 8001b70:	2201      	movs	r2, #1
 8001b72:	2109      	movs	r1, #9
 8001b74:	f7ff ff8e 	bl	8001a94 <std>
 8001b78:	f104 00d0 	add.w	r0, r4, #208	@ 0xd0
 8001b7c:	2202      	movs	r2, #2
 8001b7e:	2112      	movs	r1, #18
 8001b80:	e8bd 4010 	ldmia.w	sp!, {r4, lr}
 8001b84:	f7ff bf86 	b.w	8001a94 <std>
 8001b88:	20000410 	.word	0x20000410
 8001b8c:	200002d8 	.word	0x200002d8
 8001b90:	08001b01 	.word	0x08001b01

08001b94 <__sfp_lock_acquire>:
 8001b94:	4801      	ldr	r0, [pc, #4]	@ (8001b9c <__sfp_lock_acquire+0x8>)
 8001b96:	f000 ba3c 	b.w	8002012 <__retarget_lock_acquire_recursive>
 8001b9a:	bf00      	nop
 8001b9c:	20000419 	.word	0x20000419

08001ba0 <__sfp_lock_release>:
 8001ba0:	4801      	ldr	r0, [pc, #4]	@ (8001ba8 <__sfp_lock_release+0x8>)
 8001ba2:	f000 ba37 	b.w	8002014 <__retarget_lock_release_recursive>
 8001ba6:	bf00      	nop
 8001ba8:	20000419 	.word	0x20000419

08001bac <__sinit>:
 8001bac:	b510      	push	{r4, lr}
 8001bae:	4604      	mov	r4, r0
 8001bb0:	f7ff fff0 	bl	8001b94 <__sfp_lock_acquire>
 8001bb4:	6a23      	ldr	r3, [r4, #32]
 8001bb6:	b11b      	cbz	r3, 8001bc0 <__sinit+0x14>
 8001bb8:	e8bd 4010 	ldmia.w	sp!, {r4, lr}
 8001bbc:	f7ff bff0 	b.w	8001ba0 <__sfp_lock_release>
 8001bc0:	4b04      	ldr	r3, [pc, #16]	@ (8001bd4 <__sinit+0x28>)
 8001bc2:	6223      	str	r3, [r4, #32]
 8001bc4:	4b04      	ldr	r3, [pc, #16]	@ (8001bd8 <__sinit+0x2c>)
 8001bc6:	681b      	ldr	r3, [r3, #0]
 8001bc8:	2b00      	cmp	r3, #0
 8001bca:	d1f5      	bne.n	8001bb8 <__sinit+0xc>
 8001bcc:	f7ff ffc4 	bl	8001b58 <global_stdio_init.part.0>
 8001bd0:	e7f2      	b.n	8001bb8 <__sinit+0xc>
 8001bd2:	bf00      	nop
 8001bd4:	08001b19 	.word	0x08001b19
 8001bd8:	20000410 	.word	0x20000410

08001bdc <_fwalk_sglue>:
 8001bdc:	e92d 43f8 	stmdb	sp!, {r3, r4, r5, r6, r7, r8, r9, lr}
 8001be0:	4607      	mov	r7, r0
 8001be2:	4688      	mov	r8, r1
 8001be4:	4614      	mov	r4, r2
 8001be6:	2600      	movs	r6, #0
 8001be8:	e9d4 9501 	ldrd	r9, r5, [r4, #4]
 8001bec:	f1b9 0901 	subs.w	r9, r9, #1
 8001bf0:	d505      	bpl.n	8001bfe <_fwalk_sglue+0x22>
 8001bf2:	6824      	ldr	r4, [r4, #0]
 8001bf4:	2c00      	cmp	r4, #0
 8001bf6:	d1f7      	bne.n	8001be8 <_fwalk_sglue+0xc>
 8001bf8:	4630      	mov	r0, r6
 8001bfa:	e8bd 83f8 	ldmia.w	sp!, {r3, r4, r5, r6, r7, r8, r9, pc}
 8001bfe:	89ab      	ldrh	r3, [r5, #12]
 8001c00:	2b01      	cmp	r3, #1
 8001c02:	d907      	bls.n	8001c14 <_fwalk_sglue+0x38>
 8001c04:	f9b5 300e 	ldrsh.w	r3, [r5, #14]
 8001c08:	3301      	adds	r3, #1
 8001c0a:	d003      	beq.n	8001c14 <_fwalk_sglue+0x38>
 8001c0c:	4629      	mov	r1, r5
 8001c0e:	4638      	mov	r0, r7
 8001c10:	47c0      	blx	r8
 8001c12:	4306      	orrs	r6, r0
 8001c14:	3568      	adds	r5, #104	@ 0x68
 8001c16:	e7e9      	b.n	8001bec <_fwalk_sglue+0x10>

08001c18 <iprintf>:
 8001c18:	b40f      	push	{r0, r1, r2, r3}
 8001c1a:	b507      	push	{r0, r1, r2, lr}
 8001c1c:	4906      	ldr	r1, [pc, #24]	@ (8001c38 <iprintf+0x20>)
 8001c1e:	ab04      	add	r3, sp, #16
 8001c20:	6808      	ldr	r0, [r1, #0]
 8001c22:	f853 2b04 	ldr.w	r2, [r3], #4
 8001c26:	6881      	ldr	r1, [r0, #8]
 8001c28:	9301      	str	r3, [sp, #4]
 8001c2a:	f000 fc95 	bl	8002558 <_vfiprintf_r>
 8001c2e:	b003      	add	sp, #12
 8001c30:	f85d eb04 	ldr.w	lr, [sp], #4
 8001c34:	b004      	add	sp, #16
 8001c36:	4770      	bx	lr
 8001c38:	20000158 	.word	0x20000158

08001c3c <_puts_r>:
 8001c3c:	6a03      	ldr	r3, [r0, #32]
 8001c3e:	b570      	push	{r4, r5, r6, lr}
 8001c40:	4605      	mov	r5, r0
 8001c42:	460e      	mov	r6, r1
 8001c44:	6884      	ldr	r4, [r0, #8]
 8001c46:	b90b      	cbnz	r3, 8001c4c <_puts_r+0x10>
 8001c48:	f7ff ffb0 	bl	8001bac <__sinit>
 8001c4c:	6e63      	ldr	r3, [r4, #100]	@ 0x64
 8001c4e:	07db      	lsls	r3, r3, #31
 8001c50:	d405      	bmi.n	8001c5e <_puts_r+0x22>
 8001c52:	89a3      	ldrh	r3, [r4, #12]
 8001c54:	0598      	lsls	r0, r3, #22
 8001c56:	d402      	bmi.n	8001c5e <_puts_r+0x22>
 8001c58:	6da0      	ldr	r0, [r4, #88]	@ 0x58
 8001c5a:	f000 f9da 	bl	8002012 <__retarget_lock_acquire_recursive>
 8001c5e:	89a3      	ldrh	r3, [r4, #12]
 8001c60:	0719      	lsls	r1, r3, #28
 8001c62:	d502      	bpl.n	8001c6a <_puts_r+0x2e>
 8001c64:	6923      	ldr	r3, [r4, #16]
 8001c66:	2b00      	cmp	r3, #0
 8001c68:	d135      	bne.n	8001cd6 <_puts_r+0x9a>
 8001c6a:	4621      	mov	r1, r4
 8001c6c:	4628      	mov	r0, r5
 8001c6e:	f000 f901 	bl	8001e74 <__swsetup_r>
 8001c72:	b380      	cbz	r0, 8001cd6 <_puts_r+0x9a>
 8001c74:	f04f 35ff 	mov.w	r5, #4294967295
 8001c78:	6e63      	ldr	r3, [r4, #100]	@ 0x64
 8001c7a:	07da      	lsls	r2, r3, #31
 8001c7c:	d405      	bmi.n	8001c8a <_puts_r+0x4e>
 8001c7e:	89a3      	ldrh	r3, [r4, #12]
 8001c80:	059b      	lsls	r3, r3, #22
 8001c82:	d402      	bmi.n	8001c8a <_puts_r+0x4e>
 8001c84:	6da0      	ldr	r0, [r4, #88]	@ 0x58
 8001c86:	f000 f9c5 	bl	8002014 <__retarget_lock_release_recursive>
 8001c8a:	4628      	mov	r0, r5
 8001c8c:	bd70      	pop	{r4, r5, r6, pc}
 8001c8e:	2b00      	cmp	r3, #0
 8001c90:	da04      	bge.n	8001c9c <_puts_r+0x60>
 8001c92:	69a2      	ldr	r2, [r4, #24]
 8001c94:	429a      	cmp	r2, r3
 8001c96:	dc17      	bgt.n	8001cc8 <_puts_r+0x8c>
 8001c98:	290a      	cmp	r1, #10
 8001c9a:	d015      	beq.n	8001cc8 <_puts_r+0x8c>
 8001c9c:	6823      	ldr	r3, [r4, #0]
 8001c9e:	1c5a      	adds	r2, r3, #1
 8001ca0:	6022      	str	r2, [r4, #0]
 8001ca2:	7019      	strb	r1, [r3, #0]
 8001ca4:	68a3      	ldr	r3, [r4, #8]
 8001ca6:	f816 1f01 	ldrb.w	r1, [r6, #1]!
 8001caa:	3b01      	subs	r3, #1
 8001cac:	60a3      	str	r3, [r4, #8]
 8001cae:	2900      	cmp	r1, #0
 8001cb0:	d1ed      	bne.n	8001c8e <_puts_r+0x52>
 8001cb2:	2b00      	cmp	r3, #0
 8001cb4:	da11      	bge.n	8001cda <_puts_r+0x9e>
 8001cb6:	4622      	mov	r2, r4
 8001cb8:	210a      	movs	r1, #10
 8001cba:	4628      	mov	r0, r5
 8001cbc:	f000 f89c 	bl	8001df8 <__swbuf_r>
 8001cc0:	3001      	adds	r0, #1
 8001cc2:	d0d7      	beq.n	8001c74 <_puts_r+0x38>
 8001cc4:	250a      	movs	r5, #10
 8001cc6:	e7d7      	b.n	8001c78 <_puts_r+0x3c>
 8001cc8:	4622      	mov	r2, r4
 8001cca:	4628      	mov	r0, r5
 8001ccc:	f000 f894 	bl	8001df8 <__swbuf_r>
 8001cd0:	3001      	adds	r0, #1
 8001cd2:	d1e7      	bne.n	8001ca4 <_puts_r+0x68>
 8001cd4:	e7ce      	b.n	8001c74 <_puts_r+0x38>
 8001cd6:	3e01      	subs	r6, #1
 8001cd8:	e7e4      	b.n	8001ca4 <_puts_r+0x68>
 8001cda:	6823      	ldr	r3, [r4, #0]
 8001cdc:	1c5a      	adds	r2, r3, #1
 8001cde:	6022      	str	r2, [r4, #0]
 8001ce0:	220a      	movs	r2, #10
 8001ce2:	701a      	strb	r2, [r3, #0]
 8001ce4:	e7ee      	b.n	8001cc4 <_puts_r+0x88>
	...

08001ce8 <puts>:
 8001ce8:	4b02      	ldr	r3, [pc, #8]	@ (8001cf4 <puts+0xc>)
 8001cea:	4601      	mov	r1, r0
 8001cec:	6818      	ldr	r0, [r3, #0]
 8001cee:	f7ff bfa5 	b.w	8001c3c <_puts_r>
 8001cf2:	bf00      	nop
 8001cf4:	20000158 	.word	0x20000158

08001cf8 <__sread>:
 8001cf8:	b510      	push	{r4, lr}
 8001cfa:	460c      	mov	r4, r1
 8001cfc:	f9b1 100e 	ldrsh.w	r1, [r1, #14]
 8001d00:	f000 f938 	bl	8001f74 <_read_r>
 8001d04:	2800      	cmp	r0, #0
 8001d06:	bfab      	itete	ge
 8001d08:	6d63      	ldrge	r3, [r4, #84]	@ 0x54
 8001d0a:	89a3      	ldrhlt	r3, [r4, #12]
 8001d0c:	181b      	addge	r3, r3, r0
 8001d0e:	f423 5380 	biclt.w	r3, r3, #4096	@ 0x1000
 8001d12:	bfac      	ite	ge
 8001d14:	6563      	strge	r3, [r4, #84]	@ 0x54
 8001d16:	81a3      	strhlt	r3, [r4, #12]
 8001d18:	bd10      	pop	{r4, pc}

08001d1a <__swrite>:
 8001d1a:	e92d 41f0 	stmdb	sp!, {r4, r5, r6, r7, r8, lr}
 8001d1e:	461f      	mov	r7, r3
 8001d20:	898b      	ldrh	r3, [r1, #12]
 8001d22:	4605      	mov	r5, r0
 8001d24:	460c      	mov	r4, r1
 8001d26:	05db      	lsls	r3, r3, #23
 8001d28:	4616      	mov	r6, r2
 8001d2a:	d505      	bpl.n	8001d38 <__swrite+0x1e>
 8001d2c:	2302      	movs	r3, #2
 8001d2e:	2200      	movs	r2, #0
 8001d30:	f9b1 100e 	ldrsh.w	r1, [r1, #14]
 8001d34:	f000 f90c 	bl	8001f50 <_lseek_r>
 8001d38:	89a3      	ldrh	r3, [r4, #12]
 8001d3a:	4632      	mov	r2, r6
 8001d3c:	f9b4 100e 	ldrsh.w	r1, [r4, #14]
 8001d40:	4628      	mov	r0, r5
 8001d42:	f423 5380 	bic.w	r3, r3, #4096	@ 0x1000
 8001d46:	81a3      	strh	r3, [r4, #12]
 8001d48:	463b      	mov	r3, r7
 8001d4a:	e8bd 41f0 	ldmia.w	sp!, {r4, r5, r6, r7, r8, lr}
 8001d4e:	f000 b923 	b.w	8001f98 <_write_r>

08001d52 <__sseek>:
 8001d52:	b510      	push	{r4, lr}
 8001d54:	460c      	mov	r4, r1
 8001d56:	f9b1 100e 	ldrsh.w	r1, [r1, #14]
 8001d5a:	f000 f8f9 	bl	8001f50 <_lseek_r>
 8001d5e:	1c43      	adds	r3, r0, #1
 8001d60:	89a3      	ldrh	r3, [r4, #12]
 8001d62:	bf15      	itete	ne
 8001d64:	6560      	strne	r0, [r4, #84]	@ 0x54
 8001d66:	f423 5380 	biceq.w	r3, r3, #4096	@ 0x1000
 8001d6a:	f443 5380 	orrne.w	r3, r3, #4096	@ 0x1000
 8001d6e:	81a3      	strheq	r3, [r4, #12]
 8001d70:	bf18      	it	ne
 8001d72:	81a3      	strhne	r3, [r4, #12]
 8001d74:	bd10      	pop	{r4, pc}

08001d76 <__sclose>:
 8001d76:	f9b1 100e 	ldrsh.w	r1, [r1, #14]
 8001d7a:	f000 b8d9 	b.w	8001f30 <_close_r>

08001d7e <_vsniprintf_r>:
 8001d7e:	b530      	push	{r4, r5, lr}
 8001d80:	4614      	mov	r4, r2
 8001d82:	b09b      	sub	sp, #108	@ 0x6c
 8001d84:	4605      	mov	r5, r0
 8001d86:	461a      	mov	r2, r3
 8001d88:	2c00      	cmp	r4, #0
 8001d8a:	da05      	bge.n	8001d98 <_vsniprintf_r+0x1a>
 8001d8c:	238b      	movs	r3, #139	@ 0x8b
 8001d8e:	6003      	str	r3, [r0, #0]
 8001d90:	f04f 30ff 	mov.w	r0, #4294967295
 8001d94:	b01b      	add	sp, #108	@ 0x6c
 8001d96:	bd30      	pop	{r4, r5, pc}
 8001d98:	f44f 7302 	mov.w	r3, #520	@ 0x208
 8001d9c:	9100      	str	r1, [sp, #0]
 8001d9e:	9104      	str	r1, [sp, #16]
 8001da0:	4669      	mov	r1, sp
 8001da2:	f8ad 300c 	strh.w	r3, [sp, #12]
 8001da6:	f04f 0300 	mov.w	r3, #0
 8001daa:	9319      	str	r3, [sp, #100]	@ 0x64
 8001dac:	bf14      	ite	ne
 8001dae:	f104 33ff 	addne.w	r3, r4, #4294967295
 8001db2:	4623      	moveq	r3, r4
 8001db4:	9302      	str	r3, [sp, #8]
 8001db6:	9305      	str	r3, [sp, #20]
 8001db8:	f64f 73ff 	movw	r3, #65535	@ 0xffff
 8001dbc:	f8ad 300e 	strh.w	r3, [sp, #14]
 8001dc0:	9b1e      	ldr	r3, [sp, #120]	@ 0x78
 8001dc2:	f000 faa3 	bl	800230c <_svfiprintf_r>
 8001dc6:	1c43      	adds	r3, r0, #1
 8001dc8:	bfbc      	itt	lt
 8001dca:	238b      	movlt	r3, #139	@ 0x8b
 8001dcc:	602b      	strlt	r3, [r5, #0]
 8001dce:	2c00      	cmp	r4, #0
 8001dd0:	d0e0      	beq.n	8001d94 <_vsniprintf_r+0x16>
 8001dd2:	9b00      	ldr	r3, [sp, #0]
 8001dd4:	2200      	movs	r2, #0
 8001dd6:	701a      	strb	r2, [r3, #0]
 8001dd8:	e7dc      	b.n	8001d94 <_vsniprintf_r+0x16>
	...

08001ddc <vsniprintf>:
 8001ddc:	b507      	push	{r0, r1, r2, lr}
 8001dde:	9300      	str	r3, [sp, #0]
 8001de0:	4613      	mov	r3, r2
 8001de2:	460a      	mov	r2, r1
 8001de4:	4601      	mov	r1, r0
 8001de6:	4803      	ldr	r0, [pc, #12]	@ (8001df4 <vsniprintf+0x18>)
 8001de8:	6800      	ldr	r0, [r0, #0]
 8001dea:	f7ff ffc8 	bl	8001d7e <_vsniprintf_r>
 8001dee:	b003      	add	sp, #12
 8001df0:	f85d fb04 	ldr.w	pc, [sp], #4
 8001df4:	20000158 	.word	0x20000158

08001df8 <__swbuf_r>:
 8001df8:	b5f8      	push	{r3, r4, r5, r6, r7, lr}
 8001dfa:	460e      	mov	r6, r1
 8001dfc:	4614      	mov	r4, r2
 8001dfe:	4605      	mov	r5, r0
 8001e00:	b118      	cbz	r0, 8001e0a <__swbuf_r+0x12>
 8001e02:	6a03      	ldr	r3, [r0, #32]
 8001e04:	b90b      	cbnz	r3, 8001e0a <__swbuf_r+0x12>
 8001e06:	f7ff fed1 	bl	8001bac <__sinit>
 8001e0a:	69a3      	ldr	r3, [r4, #24]
 8001e0c:	60a3      	str	r3, [r4, #8]
 8001e0e:	89a3      	ldrh	r3, [r4, #12]
 8001e10:	071a      	lsls	r2, r3, #28
 8001e12:	d501      	bpl.n	8001e18 <__swbuf_r+0x20>
 8001e14:	6923      	ldr	r3, [r4, #16]
 8001e16:	b943      	cbnz	r3, 8001e2a <__swbuf_r+0x32>
 8001e18:	4621      	mov	r1, r4
 8001e1a:	4628      	mov	r0, r5
 8001e1c:	f000 f82a 	bl	8001e74 <__swsetup_r>
 8001e20:	b118      	cbz	r0, 8001e2a <__swbuf_r+0x32>
 8001e22:	f04f 37ff 	mov.w	r7, #4294967295
 8001e26:	4638      	mov	r0, r7
 8001e28:	bdf8      	pop	{r3, r4, r5, r6, r7, pc}
 8001e2a:	6823      	ldr	r3, [r4, #0]
 8001e2c:	b2f6      	uxtb	r6, r6
 8001e2e:	6922      	ldr	r2, [r4, #16]
 8001e30:	4637      	mov	r7, r6
 8001e32:	1a98      	subs	r0, r3, r2
 8001e34:	6963      	ldr	r3, [r4, #20]
 8001e36:	4283      	cmp	r3, r0
 8001e38:	dc05      	bgt.n	8001e46 <__swbuf_r+0x4e>
 8001e3a:	4621      	mov	r1, r4
 8001e3c:	4628      	mov	r0, r5
 8001e3e:	f000 feb7 	bl	8002bb0 <_fflush_r>
 8001e42:	2800      	cmp	r0, #0
 8001e44:	d1ed      	bne.n	8001e22 <__swbuf_r+0x2a>
 8001e46:	68a3      	ldr	r3, [r4, #8]
 8001e48:	3b01      	subs	r3, #1
 8001e4a:	60a3      	str	r3, [r4, #8]
 8001e4c:	6823      	ldr	r3, [r4, #0]
 8001e4e:	1c5a      	adds	r2, r3, #1
 8001e50:	6022      	str	r2, [r4, #0]
 8001e52:	701e      	strb	r6, [r3, #0]
 8001e54:	1c43      	adds	r3, r0, #1
 8001e56:	6962      	ldr	r2, [r4, #20]
 8001e58:	429a      	cmp	r2, r3
 8001e5a:	d004      	beq.n	8001e66 <__swbuf_r+0x6e>
 8001e5c:	89a3      	ldrh	r3, [r4, #12]
 8001e5e:	07db      	lsls	r3, r3, #31
 8001e60:	d5e1      	bpl.n	8001e26 <__swbuf_r+0x2e>
 8001e62:	2e0a      	cmp	r6, #10
 8001e64:	d1df      	bne.n	8001e26 <__swbuf_r+0x2e>
 8001e66:	4621      	mov	r1, r4
 8001e68:	4628      	mov	r0, r5
 8001e6a:	f000 fea1 	bl	8002bb0 <_fflush_r>
 8001e6e:	2800      	cmp	r0, #0
 8001e70:	d0d9      	beq.n	8001e26 <__swbuf_r+0x2e>
 8001e72:	e7d6      	b.n	8001e22 <__swbuf_r+0x2a>

08001e74 <__swsetup_r>:
 8001e74:	b538      	push	{r3, r4, r5, lr}
 8001e76:	4b29      	ldr	r3, [pc, #164]	@ (8001f1c <__swsetup_r+0xa8>)
 8001e78:	4605      	mov	r5, r0
 8001e7a:	460c      	mov	r4, r1
 8001e7c:	6818      	ldr	r0, [r3, #0]
 8001e7e:	b118      	cbz	r0, 8001e88 <__swsetup_r+0x14>
 8001e80:	6a03      	ldr	r3, [r0, #32]
 8001e82:	b90b      	cbnz	r3, 8001e88 <__swsetup_r+0x14>
 8001e84:	f7ff fe92 	bl	8001bac <__sinit>
 8001e88:	f9b4 300c 	ldrsh.w	r3, [r4, #12]
 8001e8c:	0719      	lsls	r1, r3, #28
 8001e8e:	d422      	bmi.n	8001ed6 <__swsetup_r+0x62>
 8001e90:	06da      	lsls	r2, r3, #27
 8001e92:	d407      	bmi.n	8001ea4 <__swsetup_r+0x30>
 8001e94:	2209      	movs	r2, #9
 8001e96:	602a      	str	r2, [r5, #0]
 8001e98:	f043 0340 	orr.w	r3, r3, #64	@ 0x40
 8001e9c:	f04f 30ff 	mov.w	r0, #4294967295
 8001ea0:	81a3      	strh	r3, [r4, #12]
 8001ea2:	e033      	b.n	8001f0c <__swsetup_r+0x98>
 8001ea4:	0758      	lsls	r0, r3, #29
 8001ea6:	d512      	bpl.n	8001ece <__swsetup_r+0x5a>
 8001ea8:	6b61      	ldr	r1, [r4, #52]	@ 0x34
 8001eaa:	b141      	cbz	r1, 8001ebe <__swsetup_r+0x4a>
 8001eac:	f104 0344 	add.w	r3, r4, #68	@ 0x44
 8001eb0:	4299      	cmp	r1, r3
 8001eb2:	d002      	beq.n	8001eba <__swsetup_r+0x46>
 8001eb4:	4628      	mov	r0, r5
 8001eb6:	f000 f8cd 	bl	8002054 <_free_r>
 8001eba:	2300      	movs	r3, #0
 8001ebc:	6363      	str	r3, [r4, #52]	@ 0x34
 8001ebe:	89a3      	ldrh	r3, [r4, #12]
 8001ec0:	f023 0324 	bic.w	r3, r3, #36	@ 0x24
 8001ec4:	81a3      	strh	r3, [r4, #12]
 8001ec6:	2300      	movs	r3, #0
 8001ec8:	6063      	str	r3, [r4, #4]
 8001eca:	6923      	ldr	r3, [r4, #16]
 8001ecc:	6023      	str	r3, [r4, #0]
 8001ece:	89a3      	ldrh	r3, [r4, #12]
 8001ed0:	f043 0308 	orr.w	r3, r3, #8
 8001ed4:	81a3      	strh	r3, [r4, #12]
 8001ed6:	6923      	ldr	r3, [r4, #16]
 8001ed8:	b94b      	cbnz	r3, 8001eee <__swsetup_r+0x7a>
 8001eda:	89a3      	ldrh	r3, [r4, #12]
 8001edc:	f403 7320 	and.w	r3, r3, #640	@ 0x280
 8001ee0:	f5b3 7f00 	cmp.w	r3, #512	@ 0x200
 8001ee4:	d003      	beq.n	8001eee <__swsetup_r+0x7a>
 8001ee6:	4621      	mov	r1, r4
 8001ee8:	4628      	mov	r0, r5
 8001eea:	f000 fec0 	bl	8002c6e <__smakebuf_r>
 8001eee:	f9b4 300c 	ldrsh.w	r3, [r4, #12]
 8001ef2:	f013 0201 	ands.w	r2, r3, #1
 8001ef6:	d00a      	beq.n	8001f0e <__swsetup_r+0x9a>
 8001ef8:	2200      	movs	r2, #0
 8001efa:	60a2      	str	r2, [r4, #8]
 8001efc:	6962      	ldr	r2, [r4, #20]
 8001efe:	4252      	negs	r2, r2
 8001f00:	61a2      	str	r2, [r4, #24]
 8001f02:	6922      	ldr	r2, [r4, #16]
 8001f04:	b942      	cbnz	r2, 8001f18 <__swsetup_r+0xa4>
 8001f06:	f013 0080 	ands.w	r0, r3, #128	@ 0x80
 8001f0a:	d1c5      	bne.n	8001e98 <__swsetup_r+0x24>
 8001f0c:	bd38      	pop	{r3, r4, r5, pc}
 8001f0e:	0799      	lsls	r1, r3, #30
 8001f10:	bf58      	it	pl
 8001f12:	6962      	ldrpl	r2, [r4, #20]
 8001f14:	60a2      	str	r2, [r4, #8]
 8001f16:	e7f4      	b.n	8001f02 <__swsetup_r+0x8e>
 8001f18:	2000      	movs	r0, #0
 8001f1a:	e7f7      	b.n	8001f0c <__swsetup_r+0x98>
 8001f1c:	20000158 	.word	0x20000158

08001f20 <memset>:
 8001f20:	4402      	add	r2, r0
 8001f22:	4603      	mov	r3, r0
 8001f24:	4293      	cmp	r3, r2
 8001f26:	d100      	bne.n	8001f2a <memset+0xa>
 8001f28:	4770      	bx	lr
 8001f2a:	f803 1b01 	strb.w	r1, [r3], #1
 8001f2e:	e7f9      	b.n	8001f24 <memset+0x4>

08001f30 <_close_r>:
 8001f30:	b538      	push	{r3, r4, r5, lr}
 8001f32:	2300      	movs	r3, #0
 8001f34:	4d05      	ldr	r5, [pc, #20]	@ (8001f4c <_close_r+0x1c>)
 8001f36:	4604      	mov	r4, r0
 8001f38:	4608      	mov	r0, r1
 8001f3a:	602b      	str	r3, [r5, #0]
 8001f3c:	f7ff fc70 	bl	8001820 <_close>
 8001f40:	1c43      	adds	r3, r0, #1
 8001f42:	d102      	bne.n	8001f4a <_close_r+0x1a>
 8001f44:	682b      	ldr	r3, [r5, #0]
 8001f46:	b103      	cbz	r3, 8001f4a <_close_r+0x1a>
 8001f48:	6023      	str	r3, [r4, #0]
 8001f4a:	bd38      	pop	{r3, r4, r5, pc}
 8001f4c:	20000414 	.word	0x20000414

08001f50 <_lseek_r>:
 8001f50:	b538      	push	{r3, r4, r5, lr}
 8001f52:	4604      	mov	r4, r0
 8001f54:	4d06      	ldr	r5, [pc, #24]	@ (8001f70 <_lseek_r+0x20>)
 8001f56:	4608      	mov	r0, r1
 8001f58:	4611      	mov	r1, r2
 8001f5a:	2200      	movs	r2, #0
 8001f5c:	602a      	str	r2, [r5, #0]
 8001f5e:	461a      	mov	r2, r3
 8001f60:	f7ff fc85 	bl	800186e <_lseek>
 8001f64:	1c43      	adds	r3, r0, #1
 8001f66:	d102      	bne.n	8001f6e <_lseek_r+0x1e>
 8001f68:	682b      	ldr	r3, [r5, #0]
 8001f6a:	b103      	cbz	r3, 8001f6e <_lseek_r+0x1e>
 8001f6c:	6023      	str	r3, [r4, #0]
 8001f6e:	bd38      	pop	{r3, r4, r5, pc}
 8001f70:	20000414 	.word	0x20000414

08001f74 <_read_r>:
 8001f74:	b538      	push	{r3, r4, r5, lr}
 8001f76:	4604      	mov	r4, r0
 8001f78:	4d06      	ldr	r5, [pc, #24]	@ (8001f94 <_read_r+0x20>)
 8001f7a:	4608      	mov	r0, r1
 8001f7c:	4611      	mov	r1, r2
 8001f7e:	2200      	movs	r2, #0
 8001f80:	602a      	str	r2, [r5, #0]
 8001f82:	461a      	mov	r2, r3
 8001f84:	f7ff fc13 	bl	80017ae <_read>
 8001f88:	1c43      	adds	r3, r0, #1
 8001f8a:	d102      	bne.n	8001f92 <_read_r+0x1e>
 8001f8c:	682b      	ldr	r3, [r5, #0]
 8001f8e:	b103      	cbz	r3, 8001f92 <_read_r+0x1e>
 8001f90:	6023      	str	r3, [r4, #0]
 8001f92:	bd38      	pop	{r3, r4, r5, pc}
 8001f94:	20000414 	.word	0x20000414

08001f98 <_write_r>:
 8001f98:	b538      	push	{r3, r4, r5, lr}
 8001f9a:	4604      	mov	r4, r0
 8001f9c:	4d06      	ldr	r5, [pc, #24]	@ (8001fb8 <_write_r+0x20>)
 8001f9e:	4608      	mov	r0, r1
 8001fa0:	4611      	mov	r1, r2
 8001fa2:	2200      	movs	r2, #0
 8001fa4:	602a      	str	r2, [r5, #0]
 8001fa6:	461a      	mov	r2, r3
 8001fa8:	f7ff fc1e 	bl	80017e8 <_write>
 8001fac:	1c43      	adds	r3, r0, #1
 8001fae:	d102      	bne.n	8001fb6 <_write_r+0x1e>
 8001fb0:	682b      	ldr	r3, [r5, #0]
 8001fb2:	b103      	cbz	r3, 8001fb6 <_write_r+0x1e>
 8001fb4:	6023      	str	r3, [r4, #0]
 8001fb6:	bd38      	pop	{r3, r4, r5, pc}
 8001fb8:	20000414 	.word	0x20000414

08001fbc <__errno>:
 8001fbc:	4b01      	ldr	r3, [pc, #4]	@ (8001fc4 <__errno+0x8>)
 8001fbe:	6818      	ldr	r0, [r3, #0]
 8001fc0:	4770      	bx	lr
 8001fc2:	bf00      	nop
 8001fc4:	20000158 	.word	0x20000158

08001fc8 <__libc_init_array>:
 8001fc8:	b570      	push	{r4, r5, r6, lr}
 8001fca:	4d0d      	ldr	r5, [pc, #52]	@ (8002000 <__libc_init_array+0x38>)
 8001fcc:	2600      	movs	r6, #0
 8001fce:	4c0d      	ldr	r4, [pc, #52]	@ (8002004 <__libc_init_array+0x3c>)
 8001fd0:	1b64      	subs	r4, r4, r5
 8001fd2:	10a4      	asrs	r4, r4, #2
 8001fd4:	42a6      	cmp	r6, r4
 8001fd6:	d109      	bne.n	8001fec <__libc_init_array+0x24>
 8001fd8:	4d0b      	ldr	r5, [pc, #44]	@ (8002008 <__libc_init_array+0x40>)
 8001fda:	2600      	movs	r6, #0
 8001fdc:	4c0b      	ldr	r4, [pc, #44]	@ (800200c <__libc_init_array+0x44>)
 8001fde:	f000 ff6b 	bl	8002eb8 <_init>
 8001fe2:	1b64      	subs	r4, r4, r5
 8001fe4:	10a4      	asrs	r4, r4, #2
 8001fe6:	42a6      	cmp	r6, r4
 8001fe8:	d105      	bne.n	8001ff6 <__libc_init_array+0x2e>
 8001fea:	bd70      	pop	{r4, r5, r6, pc}
 8001fec:	f855 3b04 	ldr.w	r3, [r5], #4
 8001ff0:	3601      	adds	r6, #1
 8001ff2:	4798      	blx	r3
 8001ff4:	e7ee      	b.n	8001fd4 <__libc_init_array+0xc>
 8001ff6:	f855 3b04 	ldr.w	r3, [r5], #4
 8001ffa:	3601      	adds	r6, #1
 8001ffc:	4798      	blx	r3
 8001ffe:	e7f2      	b.n	8001fe6 <__libc_init_array+0x1e>
 8002000:	08003144 	.word	0x08003144
 8002004:	08003144 	.word	0x08003144
 8002008:	08003144 	.word	0x08003144
 800200c:	08003148 	.word	0x08003148

08002010 <__retarget_lock_init_recursive>:
 8002010:	4770      	bx	lr

08002012 <__retarget_lock_acquire_recursive>:
 8002012:	4770      	bx	lr

08002014 <__retarget_lock_release_recursive>:
 8002014:	4770      	bx	lr
	...

08002018 <__assert_func>:
 8002018:	b51f      	push	{r0, r1, r2, r3, r4, lr}
 800201a:	4614      	mov	r4, r2
 800201c:	461a      	mov	r2, r3
 800201e:	4b09      	ldr	r3, [pc, #36]	@ (8002044 <__assert_func+0x2c>)
 8002020:	4605      	mov	r5, r0
 8002022:	681b      	ldr	r3, [r3, #0]
 8002024:	68d8      	ldr	r0, [r3, #12]
 8002026:	b14c      	cbz	r4, 800203c <__assert_func+0x24>
 8002028:	4b07      	ldr	r3, [pc, #28]	@ (8002048 <__assert_func+0x30>)
 800202a:	9100      	str	r1, [sp, #0]
 800202c:	4907      	ldr	r1, [pc, #28]	@ (800204c <__assert_func+0x34>)
 800202e:	e9cd 3401 	strd	r3, r4, [sp, #4]
 8002032:	462b      	mov	r3, r5
 8002034:	f000 fde4 	bl	8002c00 <fiprintf>
 8002038:	f000 febd 	bl	8002db6 <abort>
 800203c:	4b04      	ldr	r3, [pc, #16]	@ (8002050 <__assert_func+0x38>)
 800203e:	461c      	mov	r4, r3
 8002040:	e7f3      	b.n	800202a <__assert_func+0x12>
 8002042:	bf00      	nop
 8002044:	20000158 	.word	0x20000158
 8002048:	080030d3 	.word	0x080030d3
 800204c:	080030e0 	.word	0x080030e0
 8002050:	0800310e 	.word	0x0800310e

08002054 <_free_r>:
 8002054:	b538      	push	{r3, r4, r5, lr}
 8002056:	4605      	mov	r5, r0
 8002058:	2900      	cmp	r1, #0
 800205a:	d041      	beq.n	80020e0 <_free_r+0x8c>
 800205c:	f851 3c04 	ldr.w	r3, [r1, #-4]
 8002060:	1f0c      	subs	r4, r1, #4
 8002062:	2b00      	cmp	r3, #0
 8002064:	bfb8      	it	lt
 8002066:	18e4      	addlt	r4, r4, r3
 8002068:	f000 f8e8 	bl	800223c <__malloc_lock>
 800206c:	4a1d      	ldr	r2, [pc, #116]	@ (80020e4 <_free_r+0x90>)
 800206e:	6813      	ldr	r3, [r2, #0]
 8002070:	b933      	cbnz	r3, 8002080 <_free_r+0x2c>
 8002072:	6063      	str	r3, [r4, #4]
 8002074:	6014      	str	r4, [r2, #0]
 8002076:	4628      	mov	r0, r5
 8002078:	e8bd 4038 	ldmia.w	sp!, {r3, r4, r5, lr}
 800207c:	f000 b8e4 	b.w	8002248 <__malloc_unlock>
 8002080:	42a3      	cmp	r3, r4
 8002082:	d908      	bls.n	8002096 <_free_r+0x42>
 8002084:	6820      	ldr	r0, [r4, #0]
 8002086:	1821      	adds	r1, r4, r0
 8002088:	428b      	cmp	r3, r1
 800208a:	bf01      	itttt	eq
 800208c:	6819      	ldreq	r1, [r3, #0]
 800208e:	685b      	ldreq	r3, [r3, #4]
 8002090:	1809      	addeq	r1, r1, r0
 8002092:	6021      	streq	r1, [r4, #0]
 8002094:	e7ed      	b.n	8002072 <_free_r+0x1e>
 8002096:	461a      	mov	r2, r3
 8002098:	685b      	ldr	r3, [r3, #4]
 800209a:	b10b      	cbz	r3, 80020a0 <_free_r+0x4c>
 800209c:	42a3      	cmp	r3, r4
 800209e:	d9fa      	bls.n	8002096 <_free_r+0x42>
 80020a0:	6811      	ldr	r1, [r2, #0]
 80020a2:	1850      	adds	r0, r2, r1
 80020a4:	42a0      	cmp	r0, r4
 80020a6:	d10b      	bne.n	80020c0 <_free_r+0x6c>
 80020a8:	6820      	ldr	r0, [r4, #0]
 80020aa:	4401      	add	r1, r0
 80020ac:	1850      	adds	r0, r2, r1
 80020ae:	6011      	str	r1, [r2, #0]
 80020b0:	4283      	cmp	r3, r0
 80020b2:	d1e0      	bne.n	8002076 <_free_r+0x22>
 80020b4:	6818      	ldr	r0, [r3, #0]
 80020b6:	685b      	ldr	r3, [r3, #4]
 80020b8:	4408      	add	r0, r1
 80020ba:	6053      	str	r3, [r2, #4]
 80020bc:	6010      	str	r0, [r2, #0]
 80020be:	e7da      	b.n	8002076 <_free_r+0x22>
 80020c0:	d902      	bls.n	80020c8 <_free_r+0x74>
 80020c2:	230c      	movs	r3, #12
 80020c4:	602b      	str	r3, [r5, #0]
 80020c6:	e7d6      	b.n	8002076 <_free_r+0x22>
 80020c8:	6820      	ldr	r0, [r4, #0]
 80020ca:	1821      	adds	r1, r4, r0
 80020cc:	428b      	cmp	r3, r1
 80020ce:	bf02      	ittt	eq
 80020d0:	6819      	ldreq	r1, [r3, #0]
 80020d2:	685b      	ldreq	r3, [r3, #4]
 80020d4:	1809      	addeq	r1, r1, r0
 80020d6:	6063      	str	r3, [r4, #4]
 80020d8:	bf08      	it	eq
 80020da:	6021      	streq	r1, [r4, #0]
 80020dc:	6054      	str	r4, [r2, #4]
 80020de:	e7ca      	b.n	8002076 <_free_r+0x22>
 80020e0:	bd38      	pop	{r3, r4, r5, pc}
 80020e2:	bf00      	nop
 80020e4:	20000420 	.word	0x20000420

080020e8 <malloc>:
 80020e8:	4b02      	ldr	r3, [pc, #8]	@ (80020f4 <malloc+0xc>)
 80020ea:	4601      	mov	r1, r0
 80020ec:	6818      	ldr	r0, [r3, #0]
 80020ee:	f000 b825 	b.w	800213c <_malloc_r>
 80020f2:	bf00      	nop
 80020f4:	20000158 	.word	0x20000158

080020f8 <sbrk_aligned>:
 80020f8:	b570      	push	{r4, r5, r6, lr}
 80020fa:	4e0f      	ldr	r6, [pc, #60]	@ (8002138 <sbrk_aligned+0x40>)
 80020fc:	460c      	mov	r4, r1
 80020fe:	4605      	mov	r5, r0
 8002100:	6831      	ldr	r1, [r6, #0]
 8002102:	b911      	cbnz	r1, 800210a <sbrk_aligned+0x12>
 8002104:	f000 fe2c 	bl	8002d60 <_sbrk_r>
 8002108:	6030      	str	r0, [r6, #0]
 800210a:	4621      	mov	r1, r4
 800210c:	4628      	mov	r0, r5
 800210e:	f000 fe27 	bl	8002d60 <_sbrk_r>
 8002112:	1c43      	adds	r3, r0, #1
 8002114:	d103      	bne.n	800211e <sbrk_aligned+0x26>
 8002116:	f04f 34ff 	mov.w	r4, #4294967295
 800211a:	4620      	mov	r0, r4
 800211c:	bd70      	pop	{r4, r5, r6, pc}
 800211e:	1cc4      	adds	r4, r0, #3
 8002120:	f024 0403 	bic.w	r4, r4, #3
 8002124:	42a0      	cmp	r0, r4
 8002126:	d0f8      	beq.n	800211a <sbrk_aligned+0x22>
 8002128:	1a21      	subs	r1, r4, r0
 800212a:	4628      	mov	r0, r5
 800212c:	f000 fe18 	bl	8002d60 <_sbrk_r>
 8002130:	3001      	adds	r0, #1
 8002132:	d1f2      	bne.n	800211a <sbrk_aligned+0x22>
 8002134:	e7ef      	b.n	8002116 <sbrk_aligned+0x1e>
 8002136:	bf00      	nop
 8002138:	2000041c 	.word	0x2000041c

0800213c <_malloc_r>:
 800213c:	e92d 43f8 	stmdb	sp!, {r3, r4, r5, r6, r7, r8, r9, lr}
 8002140:	1ccd      	adds	r5, r1, #3
 8002142:	4606      	mov	r6, r0
 8002144:	f025 0503 	bic.w	r5, r5, #3
 8002148:	3508      	adds	r5, #8
 800214a:	2d0c      	cmp	r5, #12
 800214c:	bf38      	it	cc
 800214e:	250c      	movcc	r5, #12
 8002150:	2d00      	cmp	r5, #0
 8002152:	db01      	blt.n	8002158 <_malloc_r+0x1c>
 8002154:	42a9      	cmp	r1, r5
 8002156:	d904      	bls.n	8002162 <_malloc_r+0x26>
 8002158:	230c      	movs	r3, #12
 800215a:	6033      	str	r3, [r6, #0]
 800215c:	2000      	movs	r0, #0
 800215e:	e8bd 83f8 	ldmia.w	sp!, {r3, r4, r5, r6, r7, r8, r9, pc}
 8002162:	f8df 80d4 	ldr.w	r8, [pc, #212]	@ 8002238 <_malloc_r+0xfc>
 8002166:	f000 f869 	bl	800223c <__malloc_lock>
 800216a:	f8d8 3000 	ldr.w	r3, [r8]
 800216e:	461c      	mov	r4, r3
 8002170:	bb44      	cbnz	r4, 80021c4 <_malloc_r+0x88>
 8002172:	4629      	mov	r1, r5
 8002174:	4630      	mov	r0, r6
 8002176:	f7ff ffbf 	bl	80020f8 <sbrk_aligned>
 800217a:	1c43      	adds	r3, r0, #1
 800217c:	4604      	mov	r4, r0
 800217e:	d158      	bne.n	8002232 <_malloc_r+0xf6>
 8002180:	f8d8 4000 	ldr.w	r4, [r8]
 8002184:	4627      	mov	r7, r4
 8002186:	2f00      	cmp	r7, #0
 8002188:	d143      	bne.n	8002212 <_malloc_r+0xd6>
 800218a:	2c00      	cmp	r4, #0
 800218c:	d04b      	beq.n	8002226 <_malloc_r+0xea>
 800218e:	6823      	ldr	r3, [r4, #0]
 8002190:	4639      	mov	r1, r7
 8002192:	4630      	mov	r0, r6
 8002194:	eb04 0903 	add.w	r9, r4, r3
 8002198:	f000 fde2 	bl	8002d60 <_sbrk_r>
 800219c:	4581      	cmp	r9, r0
 800219e:	d142      	bne.n	8002226 <_malloc_r+0xea>
 80021a0:	6821      	ldr	r1, [r4, #0]
 80021a2:	4630      	mov	r0, r6
 80021a4:	1a6d      	subs	r5, r5, r1
 80021a6:	4629      	mov	r1, r5
 80021a8:	f7ff ffa6 	bl	80020f8 <sbrk_aligned>
 80021ac:	3001      	adds	r0, #1
 80021ae:	d03a      	beq.n	8002226 <_malloc_r+0xea>
 80021b0:	6823      	ldr	r3, [r4, #0]
 80021b2:	442b      	add	r3, r5
 80021b4:	6023      	str	r3, [r4, #0]
 80021b6:	f8d8 3000 	ldr.w	r3, [r8]
 80021ba:	685a      	ldr	r2, [r3, #4]
 80021bc:	bb62      	cbnz	r2, 8002218 <_malloc_r+0xdc>
 80021be:	f8c8 7000 	str.w	r7, [r8]
 80021c2:	e00f      	b.n	80021e4 <_malloc_r+0xa8>
 80021c4:	6822      	ldr	r2, [r4, #0]
 80021c6:	1b52      	subs	r2, r2, r5
 80021c8:	d420      	bmi.n	800220c <_malloc_r+0xd0>
 80021ca:	2a0b      	cmp	r2, #11
 80021cc:	d917      	bls.n	80021fe <_malloc_r+0xc2>
 80021ce:	1961      	adds	r1, r4, r5
 80021d0:	42a3      	cmp	r3, r4
 80021d2:	6025      	str	r5, [r4, #0]
 80021d4:	bf18      	it	ne
 80021d6:	6059      	strne	r1, [r3, #4]
 80021d8:	6863      	ldr	r3, [r4, #4]
 80021da:	bf08      	it	eq
 80021dc:	f8c8 1000 	streq.w	r1, [r8]
 80021e0:	5162      	str	r2, [r4, r5]
 80021e2:	604b      	str	r3, [r1, #4]
 80021e4:	4630      	mov	r0, r6
 80021e6:	f000 f82f 	bl	8002248 <__malloc_unlock>
 80021ea:	f104 000b 	add.w	r0, r4, #11
 80021ee:	1d23      	adds	r3, r4, #4
 80021f0:	f020 0007 	bic.w	r0, r0, #7
 80021f4:	1ac2      	subs	r2, r0, r3
 80021f6:	bf1c      	itt	ne
 80021f8:	1a1b      	subne	r3, r3, r0
 80021fa:	50a3      	strne	r3, [r4, r2]
 80021fc:	e7af      	b.n	800215e <_malloc_r+0x22>
 80021fe:	6862      	ldr	r2, [r4, #4]
 8002200:	42a3      	cmp	r3, r4
 8002202:	bf0c      	ite	eq
 8002204:	f8c8 2000 	streq.w	r2, [r8]
 8002208:	605a      	strne	r2, [r3, #4]
 800220a:	e7eb      	b.n	80021e4 <_malloc_r+0xa8>
 800220c:	4623      	mov	r3, r4
 800220e:	6864      	ldr	r4, [r4, #4]
 8002210:	e7ae      	b.n	8002170 <_malloc_r+0x34>
 8002212:	463c      	mov	r4, r7
 8002214:	687f      	ldr	r7, [r7, #4]
 8002216:	e7b6      	b.n	8002186 <_malloc_r+0x4a>
 8002218:	461a      	mov	r2, r3
 800221a:	685b      	ldr	r3, [r3, #4]
 800221c:	42a3      	cmp	r3, r4
 800221e:	d1fb      	bne.n	8002218 <_malloc_r+0xdc>
 8002220:	2300      	movs	r3, #0
 8002222:	6053      	str	r3, [r2, #4]
 8002224:	e7de      	b.n	80021e4 <_malloc_r+0xa8>
 8002226:	230c      	movs	r3, #12
 8002228:	4630      	mov	r0, r6
 800222a:	6033      	str	r3, [r6, #0]
 800222c:	f000 f80c 	bl	8002248 <__malloc_unlock>
 8002230:	e794      	b.n	800215c <_malloc_r+0x20>
 8002232:	6005      	str	r5, [r0, #0]
 8002234:	e7d6      	b.n	80021e4 <_malloc_r+0xa8>
 8002236:	bf00      	nop
 8002238:	20000420 	.word	0x20000420

0800223c <__malloc_lock>:
 800223c:	4801      	ldr	r0, [pc, #4]	@ (8002244 <__malloc_lock+0x8>)
 800223e:	f7ff bee8 	b.w	8002012 <__retarget_lock_acquire_recursive>
 8002242:	bf00      	nop
 8002244:	20000418 	.word	0x20000418

08002248 <__malloc_unlock>:
 8002248:	4801      	ldr	r0, [pc, #4]	@ (8002250 <__malloc_unlock+0x8>)
 800224a:	f7ff bee3 	b.w	8002014 <__retarget_lock_release_recursive>
 800224e:	bf00      	nop
 8002250:	20000418 	.word	0x20000418

08002254 <__ssputs_r>:
 8002254:	e92d 47f0 	stmdb	sp!, {r4, r5, r6, r7, r8, r9, sl, lr}
 8002258:	461f      	mov	r7, r3
 800225a:	688e      	ldr	r6, [r1, #8]
 800225c:	4682      	mov	sl, r0
 800225e:	460c      	mov	r4, r1
 8002260:	42be      	cmp	r6, r7
 8002262:	4690      	mov	r8, r2
 8002264:	680b      	ldr	r3, [r1, #0]
 8002266:	d82d      	bhi.n	80022c4 <__ssputs_r+0x70>
 8002268:	f9b1 200c 	ldrsh.w	r2, [r1, #12]
 800226c:	f412 6f90 	tst.w	r2, #1152	@ 0x480
 8002270:	d026      	beq.n	80022c0 <__ssputs_r+0x6c>
 8002272:	6965      	ldr	r5, [r4, #20]
 8002274:	6909      	ldr	r1, [r1, #16]
 8002276:	eb05 0545 	add.w	r5, r5, r5, lsl #1
 800227a:	eba3 0901 	sub.w	r9, r3, r1
 800227e:	1c7b      	adds	r3, r7, #1
 8002280:	eb05 75d5 	add.w	r5, r5, r5, lsr #31
 8002284:	444b      	add	r3, r9
 8002286:	106d      	asrs	r5, r5, #1
 8002288:	429d      	cmp	r5, r3
 800228a:	bf38      	it	cc
 800228c:	461d      	movcc	r5, r3
 800228e:	0553      	lsls	r3, r2, #21
 8002290:	d527      	bpl.n	80022e2 <__ssputs_r+0x8e>
 8002292:	4629      	mov	r1, r5
 8002294:	f7ff ff52 	bl	800213c <_malloc_r>
 8002298:	4606      	mov	r6, r0
 800229a:	b360      	cbz	r0, 80022f6 <__ssputs_r+0xa2>
 800229c:	464a      	mov	r2, r9
 800229e:	6921      	ldr	r1, [r4, #16]
 80022a0:	f000 fd7c 	bl	8002d9c <memcpy>
 80022a4:	89a3      	ldrh	r3, [r4, #12]
 80022a6:	f423 6390 	bic.w	r3, r3, #1152	@ 0x480
 80022aa:	f043 0380 	orr.w	r3, r3, #128	@ 0x80
 80022ae:	81a3      	strh	r3, [r4, #12]
 80022b0:	6126      	str	r6, [r4, #16]
 80022b2:	444e      	add	r6, r9
 80022b4:	6165      	str	r5, [r4, #20]
 80022b6:	eba5 0509 	sub.w	r5, r5, r9
 80022ba:	6026      	str	r6, [r4, #0]
 80022bc:	463e      	mov	r6, r7
 80022be:	60a5      	str	r5, [r4, #8]
 80022c0:	42be      	cmp	r6, r7
 80022c2:	d900      	bls.n	80022c6 <__ssputs_r+0x72>
 80022c4:	463e      	mov	r6, r7
 80022c6:	4632      	mov	r2, r6
 80022c8:	4641      	mov	r1, r8
 80022ca:	6820      	ldr	r0, [r4, #0]
 80022cc:	f000 fd0b 	bl	8002ce6 <memmove>
 80022d0:	68a3      	ldr	r3, [r4, #8]
 80022d2:	2000      	movs	r0, #0
 80022d4:	1b9b      	subs	r3, r3, r6
 80022d6:	60a3      	str	r3, [r4, #8]
 80022d8:	6823      	ldr	r3, [r4, #0]
 80022da:	4433      	add	r3, r6
 80022dc:	6023      	str	r3, [r4, #0]
 80022de:	e8bd 87f0 	ldmia.w	sp!, {r4, r5, r6, r7, r8, r9, sl, pc}
 80022e2:	462a      	mov	r2, r5
 80022e4:	f000 fd6e 	bl	8002dc4 <_realloc_r>
 80022e8:	4606      	mov	r6, r0
 80022ea:	2800      	cmp	r0, #0
 80022ec:	d1e0      	bne.n	80022b0 <__ssputs_r+0x5c>
 80022ee:	6921      	ldr	r1, [r4, #16]
 80022f0:	4650      	mov	r0, sl
 80022f2:	f7ff feaf 	bl	8002054 <_free_r>
 80022f6:	230c      	movs	r3, #12
 80022f8:	f04f 30ff 	mov.w	r0, #4294967295
 80022fc:	f8ca 3000 	str.w	r3, [sl]
 8002300:	89a3      	ldrh	r3, [r4, #12]
 8002302:	f043 0340 	orr.w	r3, r3, #64	@ 0x40
 8002306:	81a3      	strh	r3, [r4, #12]
 8002308:	e7e9      	b.n	80022de <__ssputs_r+0x8a>
	...

0800230c <_svfiprintf_r>:
 800230c:	e92d 4ff0 	stmdb	sp!, {r4, r5, r6, r7, r8, r9, sl, fp, lr}
 8002310:	4698      	mov	r8, r3
 8002312:	898b      	ldrh	r3, [r1, #12]
 8002314:	b09d      	sub	sp, #116	@ 0x74
 8002316:	4607      	mov	r7, r0
 8002318:	061b      	lsls	r3, r3, #24
 800231a:	460d      	mov	r5, r1
 800231c:	4614      	mov	r4, r2
 800231e:	d510      	bpl.n	8002342 <_svfiprintf_r+0x36>
 8002320:	690b      	ldr	r3, [r1, #16]
 8002322:	b973      	cbnz	r3, 8002342 <_svfiprintf_r+0x36>
 8002324:	2140      	movs	r1, #64	@ 0x40
 8002326:	f7ff ff09 	bl	800213c <_malloc_r>
 800232a:	6028      	str	r0, [r5, #0]
 800232c:	6128      	str	r0, [r5, #16]
 800232e:	b930      	cbnz	r0, 800233e <_svfiprintf_r+0x32>
 8002330:	230c      	movs	r3, #12
 8002332:	603b      	str	r3, [r7, #0]
 8002334:	f04f 30ff 	mov.w	r0, #4294967295
 8002338:	b01d      	add	sp, #116	@ 0x74
 800233a:	e8bd 8ff0 	ldmia.w	sp!, {r4, r5, r6, r7, r8, r9, sl, fp, pc}
 800233e:	2340      	movs	r3, #64	@ 0x40
 8002340:	616b      	str	r3, [r5, #20]
 8002342:	2300      	movs	r3, #0
 8002344:	f8cd 800c 	str.w	r8, [sp, #12]
 8002348:	f04f 0901 	mov.w	r9, #1
 800234c:	f8df 81a0 	ldr.w	r8, [pc, #416]	@ 80024f0 <_svfiprintf_r+0x1e4>
 8002350:	9309      	str	r3, [sp, #36]	@ 0x24
 8002352:	2320      	movs	r3, #32
 8002354:	f88d 3029 	strb.w	r3, [sp, #41]	@ 0x29
 8002358:	2330      	movs	r3, #48	@ 0x30
 800235a:	f88d 302a 	strb.w	r3, [sp, #42]	@ 0x2a
 800235e:	4623      	mov	r3, r4
 8002360:	469a      	mov	sl, r3
 8002362:	f813 2b01 	ldrb.w	r2, [r3], #1
 8002366:	b10a      	cbz	r2, 800236c <_svfiprintf_r+0x60>
 8002368:	2a25      	cmp	r2, #37	@ 0x25
 800236a:	d1f9      	bne.n	8002360 <_svfiprintf_r+0x54>
 800236c:	ebba 0b04 	subs.w	fp, sl, r4
 8002370:	d00b      	beq.n	800238a <_svfiprintf_r+0x7e>
 8002372:	465b      	mov	r3, fp
 8002374:	4622      	mov	r2, r4
 8002376:	4629      	mov	r1, r5
 8002378:	4638      	mov	r0, r7
 800237a:	f7ff ff6b 	bl	8002254 <__ssputs_r>
 800237e:	3001      	adds	r0, #1
 8002380:	f000 80a7 	beq.w	80024d2 <_svfiprintf_r+0x1c6>
 8002384:	9a09      	ldr	r2, [sp, #36]	@ 0x24
 8002386:	445a      	add	r2, fp
 8002388:	9209      	str	r2, [sp, #36]	@ 0x24
 800238a:	f89a 3000 	ldrb.w	r3, [sl]
 800238e:	2b00      	cmp	r3, #0
 8002390:	f000 809f 	beq.w	80024d2 <_svfiprintf_r+0x1c6>
 8002394:	2300      	movs	r3, #0
 8002396:	f04f 32ff 	mov.w	r2, #4294967295
 800239a:	f10a 0a01 	add.w	sl, sl, #1
 800239e:	9304      	str	r3, [sp, #16]
 80023a0:	9307      	str	r3, [sp, #28]
 80023a2:	f88d 3053 	strb.w	r3, [sp, #83]	@ 0x53
 80023a6:	931a      	str	r3, [sp, #104]	@ 0x68
 80023a8:	e9cd 2305 	strd	r2, r3, [sp, #20]
 80023ac:	4654      	mov	r4, sl
 80023ae:	2205      	movs	r2, #5
 80023b0:	484f      	ldr	r0, [pc, #316]	@ (80024f0 <_svfiprintf_r+0x1e4>)
 80023b2:	f814 1b01 	ldrb.w	r1, [r4], #1
 80023b6:	f000 fce3 	bl	8002d80 <memchr>
 80023ba:	9a04      	ldr	r2, [sp, #16]
 80023bc:	b9d8      	cbnz	r0, 80023f6 <_svfiprintf_r+0xea>
 80023be:	06d0      	lsls	r0, r2, #27
 80023c0:	bf44      	itt	mi
 80023c2:	2320      	movmi	r3, #32
 80023c4:	f88d 3053 	strbmi.w	r3, [sp, #83]	@ 0x53
 80023c8:	0711      	lsls	r1, r2, #28
 80023ca:	bf44      	itt	mi
 80023cc:	232b      	movmi	r3, #43	@ 0x2b
 80023ce:	f88d 3053 	strbmi.w	r3, [sp, #83]	@ 0x53
 80023d2:	f89a 3000 	ldrb.w	r3, [sl]
 80023d6:	2b2a      	cmp	r3, #42	@ 0x2a
 80023d8:	d015      	beq.n	8002406 <_svfiprintf_r+0xfa>
 80023da:	9a07      	ldr	r2, [sp, #28]
 80023dc:	4654      	mov	r4, sl
 80023de:	2000      	movs	r0, #0
 80023e0:	f04f 0c0a 	mov.w	ip, #10
 80023e4:	4621      	mov	r1, r4
 80023e6:	f811 3b01 	ldrb.w	r3, [r1], #1
 80023ea:	3b30      	subs	r3, #48	@ 0x30
 80023ec:	2b09      	cmp	r3, #9
 80023ee:	d94b      	bls.n	8002488 <_svfiprintf_r+0x17c>
 80023f0:	b1b0      	cbz	r0, 8002420 <_svfiprintf_r+0x114>
 80023f2:	9207      	str	r2, [sp, #28]
 80023f4:	e014      	b.n	8002420 <_svfiprintf_r+0x114>
 80023f6:	eba0 0308 	sub.w	r3, r0, r8
 80023fa:	46a2      	mov	sl, r4
 80023fc:	fa09 f303 	lsl.w	r3, r9, r3
 8002400:	4313      	orrs	r3, r2
 8002402:	9304      	str	r3, [sp, #16]
 8002404:	e7d2      	b.n	80023ac <_svfiprintf_r+0xa0>
 8002406:	9b03      	ldr	r3, [sp, #12]
 8002408:	1d19      	adds	r1, r3, #4
 800240a:	681b      	ldr	r3, [r3, #0]
 800240c:	2b00      	cmp	r3, #0
 800240e:	9103      	str	r1, [sp, #12]
 8002410:	bfbb      	ittet	lt
 8002412:	425b      	neglt	r3, r3
 8002414:	f042 0202 	orrlt.w	r2, r2, #2
 8002418:	9307      	strge	r3, [sp, #28]
 800241a:	9307      	strlt	r3, [sp, #28]
 800241c:	bfb8      	it	lt
 800241e:	9204      	strlt	r2, [sp, #16]
 8002420:	7823      	ldrb	r3, [r4, #0]
 8002422:	2b2e      	cmp	r3, #46	@ 0x2e
 8002424:	d10a      	bne.n	800243c <_svfiprintf_r+0x130>
 8002426:	7863      	ldrb	r3, [r4, #1]
 8002428:	2b2a      	cmp	r3, #42	@ 0x2a
 800242a:	d132      	bne.n	8002492 <_svfiprintf_r+0x186>
 800242c:	9b03      	ldr	r3, [sp, #12]
 800242e:	3402      	adds	r4, #2
 8002430:	1d1a      	adds	r2, r3, #4
 8002432:	681b      	ldr	r3, [r3, #0]
 8002434:	ea43 73e3 	orr.w	r3, r3, r3, asr #31
 8002438:	9203      	str	r2, [sp, #12]
 800243a:	9305      	str	r3, [sp, #20]
 800243c:	f8df a0c0 	ldr.w	sl, [pc, #192]	@ 8002500 <_svfiprintf_r+0x1f4>
 8002440:	2203      	movs	r2, #3
 8002442:	7821      	ldrb	r1, [r4, #0]
 8002444:	4650      	mov	r0, sl
 8002446:	f000 fc9b 	bl	8002d80 <memchr>
 800244a:	b138      	cbz	r0, 800245c <_svfiprintf_r+0x150>
 800244c:	eba0 000a 	sub.w	r0, r0, sl
 8002450:	2240      	movs	r2, #64	@ 0x40
 8002452:	9b04      	ldr	r3, [sp, #16]
 8002454:	3401      	adds	r4, #1
 8002456:	4082      	lsls	r2, r0
 8002458:	4313      	orrs	r3, r2
 800245a:	9304      	str	r3, [sp, #16]
 800245c:	f814 1b01 	ldrb.w	r1, [r4], #1
 8002460:	2206      	movs	r2, #6
 8002462:	4824      	ldr	r0, [pc, #144]	@ (80024f4 <_svfiprintf_r+0x1e8>)
 8002464:	f88d 1028 	strb.w	r1, [sp, #40]	@ 0x28
 8002468:	f000 fc8a 	bl	8002d80 <memchr>
 800246c:	2800      	cmp	r0, #0
 800246e:	d036      	beq.n	80024de <_svfiprintf_r+0x1d2>
 8002470:	4b21      	ldr	r3, [pc, #132]	@ (80024f8 <_svfiprintf_r+0x1ec>)
 8002472:	bb1b      	cbnz	r3, 80024bc <_svfiprintf_r+0x1b0>
 8002474:	9b03      	ldr	r3, [sp, #12]
 8002476:	3307      	adds	r3, #7
 8002478:	f023 0307 	bic.w	r3, r3, #7
 800247c:	3308      	adds	r3, #8
 800247e:	9303      	str	r3, [sp, #12]
 8002480:	9b09      	ldr	r3, [sp, #36]	@ 0x24
 8002482:	4433      	add	r3, r6
 8002484:	9309      	str	r3, [sp, #36]	@ 0x24
 8002486:	e76a      	b.n	800235e <_svfiprintf_r+0x52>
 8002488:	fb0c 3202 	mla	r2, ip, r2, r3
 800248c:	460c      	mov	r4, r1
 800248e:	2001      	movs	r0, #1
 8002490:	e7a8      	b.n	80023e4 <_svfiprintf_r+0xd8>
 8002492:	2300      	movs	r3, #0
 8002494:	3401      	adds	r4, #1
 8002496:	f04f 0c0a 	mov.w	ip, #10
 800249a:	4619      	mov	r1, r3
 800249c:	9305      	str	r3, [sp, #20]
 800249e:	4620      	mov	r0, r4
 80024a0:	f810 2b01 	ldrb.w	r2, [r0], #1
 80024a4:	3a30      	subs	r2, #48	@ 0x30
 80024a6:	2a09      	cmp	r2, #9
 80024a8:	d903      	bls.n	80024b2 <_svfiprintf_r+0x1a6>
 80024aa:	2b00      	cmp	r3, #0
 80024ac:	d0c6      	beq.n	800243c <_svfiprintf_r+0x130>
 80024ae:	9105      	str	r1, [sp, #20]
 80024b0:	e7c4      	b.n	800243c <_svfiprintf_r+0x130>
 80024b2:	fb0c 2101 	mla	r1, ip, r1, r2
 80024b6:	4604      	mov	r4, r0
 80024b8:	2301      	movs	r3, #1
 80024ba:	e7f0      	b.n	800249e <_svfiprintf_r+0x192>
 80024bc:	ab03      	add	r3, sp, #12
 80024be:	462a      	mov	r2, r5
 80024c0:	a904      	add	r1, sp, #16
 80024c2:	4638      	mov	r0, r7
 80024c4:	9300      	str	r3, [sp, #0]
 80024c6:	4b0d      	ldr	r3, [pc, #52]	@ (80024fc <_svfiprintf_r+0x1f0>)
 80024c8:	f3af 8000 	nop.w
 80024cc:	1c42      	adds	r2, r0, #1
 80024ce:	4606      	mov	r6, r0
 80024d0:	d1d6      	bne.n	8002480 <_svfiprintf_r+0x174>
 80024d2:	89ab      	ldrh	r3, [r5, #12]
 80024d4:	065b      	lsls	r3, r3, #25
 80024d6:	f53f af2d 	bmi.w	8002334 <_svfiprintf_r+0x28>
 80024da:	9809      	ldr	r0, [sp, #36]	@ 0x24
 80024dc:	e72c      	b.n	8002338 <_svfiprintf_r+0x2c>
 80024de:	ab03      	add	r3, sp, #12
 80024e0:	462a      	mov	r2, r5
 80024e2:	a904      	add	r1, sp, #16
 80024e4:	4638      	mov	r0, r7
 80024e6:	9300      	str	r3, [sp, #0]
 80024e8:	4b04      	ldr	r3, [pc, #16]	@ (80024fc <_svfiprintf_r+0x1f0>)
 80024ea:	f000 f9bf 	bl	800286c <_printf_i>
 80024ee:	e7ed      	b.n	80024cc <_svfiprintf_r+0x1c0>
 80024f0:	0800310f 	.word	0x0800310f
 80024f4:	08003119 	.word	0x08003119
 80024f8:	00000000 	.word	0x00000000
 80024fc:	08002255 	.word	0x08002255
 8002500:	08003115 	.word	0x08003115

08002504 <__sfputc_r>:
 8002504:	6893      	ldr	r3, [r2, #8]
 8002506:	3b01      	subs	r3, #1
 8002508:	2b00      	cmp	r3, #0
 800250a:	b410      	push	{r4}
 800250c:	6093      	str	r3, [r2, #8]
 800250e:	da08      	bge.n	8002522 <__sfputc_r+0x1e>
 8002510:	6994      	ldr	r4, [r2, #24]
 8002512:	42a3      	cmp	r3, r4
 8002514:	db01      	blt.n	800251a <__sfputc_r+0x16>
 8002516:	290a      	cmp	r1, #10
 8002518:	d103      	bne.n	8002522 <__sfputc_r+0x1e>
 800251a:	f85d 4b04 	ldr.w	r4, [sp], #4
 800251e:	f7ff bc6b 	b.w	8001df8 <__swbuf_r>
 8002522:	6813      	ldr	r3, [r2, #0]
 8002524:	1c58      	adds	r0, r3, #1
 8002526:	6010      	str	r0, [r2, #0]
 8002528:	4608      	mov	r0, r1
 800252a:	7019      	strb	r1, [r3, #0]
 800252c:	f85d 4b04 	ldr.w	r4, [sp], #4
 8002530:	4770      	bx	lr

08002532 <__sfputs_r>:
 8002532:	b5f8      	push	{r3, r4, r5, r6, r7, lr}
 8002534:	4606      	mov	r6, r0
 8002536:	460f      	mov	r7, r1
 8002538:	4614      	mov	r4, r2
 800253a:	18d5      	adds	r5, r2, r3
 800253c:	42ac      	cmp	r4, r5
 800253e:	d101      	bne.n	8002544 <__sfputs_r+0x12>
 8002540:	2000      	movs	r0, #0
 8002542:	e007      	b.n	8002554 <__sfputs_r+0x22>
 8002544:	463a      	mov	r2, r7
 8002546:	f814 1b01 	ldrb.w	r1, [r4], #1
 800254a:	4630      	mov	r0, r6
 800254c:	f7ff ffda 	bl	8002504 <__sfputc_r>
 8002550:	1c43      	adds	r3, r0, #1
 8002552:	d1f3      	bne.n	800253c <__sfputs_r+0xa>
 8002554:	bdf8      	pop	{r3, r4, r5, r6, r7, pc}
	...

08002558 <_vfiprintf_r>:
 8002558:	e92d 4ff0 	stmdb	sp!, {r4, r5, r6, r7, r8, r9, sl, fp, lr}
 800255c:	460d      	mov	r5, r1
 800255e:	b09d      	sub	sp, #116	@ 0x74
 8002560:	4614      	mov	r4, r2
 8002562:	4698      	mov	r8, r3
 8002564:	4606      	mov	r6, r0
 8002566:	b118      	cbz	r0, 8002570 <_vfiprintf_r+0x18>
 8002568:	6a03      	ldr	r3, [r0, #32]
 800256a:	b90b      	cbnz	r3, 8002570 <_vfiprintf_r+0x18>
 800256c:	f7ff fb1e 	bl	8001bac <__sinit>
 8002570:	6e6b      	ldr	r3, [r5, #100]	@ 0x64
 8002572:	07d9      	lsls	r1, r3, #31
 8002574:	d405      	bmi.n	8002582 <_vfiprintf_r+0x2a>
 8002576:	89ab      	ldrh	r3, [r5, #12]
 8002578:	059a      	lsls	r2, r3, #22
 800257a:	d402      	bmi.n	8002582 <_vfiprintf_r+0x2a>
 800257c:	6da8      	ldr	r0, [r5, #88]	@ 0x58
 800257e:	f7ff fd48 	bl	8002012 <__retarget_lock_acquire_recursive>
 8002582:	89ab      	ldrh	r3, [r5, #12]
 8002584:	071b      	lsls	r3, r3, #28
 8002586:	d501      	bpl.n	800258c <_vfiprintf_r+0x34>
 8002588:	692b      	ldr	r3, [r5, #16]
 800258a:	b99b      	cbnz	r3, 80025b4 <_vfiprintf_r+0x5c>
 800258c:	4629      	mov	r1, r5
 800258e:	4630      	mov	r0, r6
 8002590:	f7ff fc70 	bl	8001e74 <__swsetup_r>
 8002594:	b170      	cbz	r0, 80025b4 <_vfiprintf_r+0x5c>
 8002596:	6e6b      	ldr	r3, [r5, #100]	@ 0x64
 8002598:	07dc      	lsls	r4, r3, #31
 800259a:	d504      	bpl.n	80025a6 <_vfiprintf_r+0x4e>
 800259c:	f04f 30ff 	mov.w	r0, #4294967295
 80025a0:	b01d      	add	sp, #116	@ 0x74
 80025a2:	e8bd 8ff0 	ldmia.w	sp!, {r4, r5, r6, r7, r8, r9, sl, fp, pc}
 80025a6:	89ab      	ldrh	r3, [r5, #12]
 80025a8:	0598      	lsls	r0, r3, #22
 80025aa:	d4f7      	bmi.n	800259c <_vfiprintf_r+0x44>
 80025ac:	6da8      	ldr	r0, [r5, #88]	@ 0x58
 80025ae:	f7ff fd31 	bl	8002014 <__retarget_lock_release_recursive>
 80025b2:	e7f3      	b.n	800259c <_vfiprintf_r+0x44>
 80025b4:	2300      	movs	r3, #0
 80025b6:	f8cd 800c 	str.w	r8, [sp, #12]
 80025ba:	f04f 0901 	mov.w	r9, #1
 80025be:	f8df 81b4 	ldr.w	r8, [pc, #436]	@ 8002774 <_vfiprintf_r+0x21c>
 80025c2:	9309      	str	r3, [sp, #36]	@ 0x24
 80025c4:	2320      	movs	r3, #32
 80025c6:	f88d 3029 	strb.w	r3, [sp, #41]	@ 0x29
 80025ca:	2330      	movs	r3, #48	@ 0x30
 80025cc:	f88d 302a 	strb.w	r3, [sp, #42]	@ 0x2a
 80025d0:	4623      	mov	r3, r4
 80025d2:	469a      	mov	sl, r3
 80025d4:	f813 2b01 	ldrb.w	r2, [r3], #1
 80025d8:	b10a      	cbz	r2, 80025de <_vfiprintf_r+0x86>
 80025da:	2a25      	cmp	r2, #37	@ 0x25
 80025dc:	d1f9      	bne.n	80025d2 <_vfiprintf_r+0x7a>
 80025de:	ebba 0b04 	subs.w	fp, sl, r4
 80025e2:	d00b      	beq.n	80025fc <_vfiprintf_r+0xa4>
 80025e4:	465b      	mov	r3, fp
 80025e6:	4622      	mov	r2, r4
 80025e8:	4629      	mov	r1, r5
 80025ea:	4630      	mov	r0, r6
 80025ec:	f7ff ffa1 	bl	8002532 <__sfputs_r>
 80025f0:	3001      	adds	r0, #1
 80025f2:	f000 80a7 	beq.w	8002744 <_vfiprintf_r+0x1ec>
 80025f6:	9a09      	ldr	r2, [sp, #36]	@ 0x24
 80025f8:	445a      	add	r2, fp
 80025fa:	9209      	str	r2, [sp, #36]	@ 0x24
 80025fc:	f89a 3000 	ldrb.w	r3, [sl]
 8002600:	2b00      	cmp	r3, #0
 8002602:	f000 809f 	beq.w	8002744 <_vfiprintf_r+0x1ec>
 8002606:	2300      	movs	r3, #0
 8002608:	f04f 32ff 	mov.w	r2, #4294967295
 800260c:	f10a 0a01 	add.w	sl, sl, #1
 8002610:	9304      	str	r3, [sp, #16]
 8002612:	9307      	str	r3, [sp, #28]
 8002614:	f88d 3053 	strb.w	r3, [sp, #83]	@ 0x53
 8002618:	931a      	str	r3, [sp, #104]	@ 0x68
 800261a:	e9cd 2305 	strd	r2, r3, [sp, #20]
 800261e:	4654      	mov	r4, sl
 8002620:	2205      	movs	r2, #5
 8002622:	4854      	ldr	r0, [pc, #336]	@ (8002774 <_vfiprintf_r+0x21c>)
 8002624:	f814 1b01 	ldrb.w	r1, [r4], #1
 8002628:	f000 fbaa 	bl	8002d80 <memchr>
 800262c:	9a04      	ldr	r2, [sp, #16]
 800262e:	b9d8      	cbnz	r0, 8002668 <_vfiprintf_r+0x110>
 8002630:	06d1      	lsls	r1, r2, #27
 8002632:	bf44      	itt	mi
 8002634:	2320      	movmi	r3, #32
 8002636:	f88d 3053 	strbmi.w	r3, [sp, #83]	@ 0x53
 800263a:	0713      	lsls	r3, r2, #28
 800263c:	bf44      	itt	mi
 800263e:	232b      	movmi	r3, #43	@ 0x2b
 8002640:	f88d 3053 	strbmi.w	r3, [sp, #83]	@ 0x53
 8002644:	f89a 3000 	ldrb.w	r3, [sl]
 8002648:	2b2a      	cmp	r3, #42	@ 0x2a
 800264a:	d015      	beq.n	8002678 <_vfiprintf_r+0x120>
 800264c:	9a07      	ldr	r2, [sp, #28]
 800264e:	4654      	mov	r4, sl
 8002650:	2000      	movs	r0, #0
 8002652:	f04f 0c0a 	mov.w	ip, #10
 8002656:	4621      	mov	r1, r4
 8002658:	f811 3b01 	ldrb.w	r3, [r1], #1
 800265c:	3b30      	subs	r3, #48	@ 0x30
 800265e:	2b09      	cmp	r3, #9
 8002660:	d94b      	bls.n	80026fa <_vfiprintf_r+0x1a2>
 8002662:	b1b0      	cbz	r0, 8002692 <_vfiprintf_r+0x13a>
 8002664:	9207      	str	r2, [sp, #28]
 8002666:	e014      	b.n	8002692 <_vfiprintf_r+0x13a>
 8002668:	eba0 0308 	sub.w	r3, r0, r8
 800266c:	46a2      	mov	sl, r4
 800266e:	fa09 f303 	lsl.w	r3, r9, r3
 8002672:	4313      	orrs	r3, r2
 8002674:	9304      	str	r3, [sp, #16]
 8002676:	e7d2      	b.n	800261e <_vfiprintf_r+0xc6>
 8002678:	9b03      	ldr	r3, [sp, #12]
 800267a:	1d19      	adds	r1, r3, #4
 800267c:	681b      	ldr	r3, [r3, #0]
 800267e:	2b00      	cmp	r3, #0
 8002680:	9103      	str	r1, [sp, #12]
 8002682:	bfbb      	ittet	lt
 8002684:	425b      	neglt	r3, r3
 8002686:	f042 0202 	orrlt.w	r2, r2, #2
 800268a:	9307      	strge	r3, [sp, #28]
 800268c:	9307      	strlt	r3, [sp, #28]
 800268e:	bfb8      	it	lt
 8002690:	9204      	strlt	r2, [sp, #16]
 8002692:	7823      	ldrb	r3, [r4, #0]
 8002694:	2b2e      	cmp	r3, #46	@ 0x2e
 8002696:	d10a      	bne.n	80026ae <_vfiprintf_r+0x156>
 8002698:	7863      	ldrb	r3, [r4, #1]
 800269a:	2b2a      	cmp	r3, #42	@ 0x2a
 800269c:	d132      	bne.n	8002704 <_vfiprintf_r+0x1ac>
 800269e:	9b03      	ldr	r3, [sp, #12]
 80026a0:	3402      	adds	r4, #2
 80026a2:	1d1a      	adds	r2, r3, #4
 80026a4:	681b      	ldr	r3, [r3, #0]
 80026a6:	ea43 73e3 	orr.w	r3, r3, r3, asr #31
 80026aa:	9203      	str	r2, [sp, #12]
 80026ac:	9305      	str	r3, [sp, #20]
 80026ae:	f8df a0d4 	ldr.w	sl, [pc, #212]	@ 8002784 <_vfiprintf_r+0x22c>
 80026b2:	2203      	movs	r2, #3
 80026b4:	7821      	ldrb	r1, [r4, #0]
 80026b6:	4650      	mov	r0, sl
 80026b8:	f000 fb62 	bl	8002d80 <memchr>
 80026bc:	b138      	cbz	r0, 80026ce <_vfiprintf_r+0x176>
 80026be:	eba0 000a 	sub.w	r0, r0, sl
 80026c2:	2240      	movs	r2, #64	@ 0x40
 80026c4:	9b04      	ldr	r3, [sp, #16]
 80026c6:	3401      	adds	r4, #1
 80026c8:	4082      	lsls	r2, r0
 80026ca:	4313      	orrs	r3, r2
 80026cc:	9304      	str	r3, [sp, #16]
 80026ce:	f814 1b01 	ldrb.w	r1, [r4], #1
 80026d2:	2206      	movs	r2, #6
 80026d4:	4828      	ldr	r0, [pc, #160]	@ (8002778 <_vfiprintf_r+0x220>)
 80026d6:	f88d 1028 	strb.w	r1, [sp, #40]	@ 0x28
 80026da:	f000 fb51 	bl	8002d80 <memchr>
 80026de:	2800      	cmp	r0, #0
 80026e0:	d03f      	beq.n	8002762 <_vfiprintf_r+0x20a>
 80026e2:	4b26      	ldr	r3, [pc, #152]	@ (800277c <_vfiprintf_r+0x224>)
 80026e4:	bb1b      	cbnz	r3, 800272e <_vfiprintf_r+0x1d6>
 80026e6:	9b03      	ldr	r3, [sp, #12]
 80026e8:	3307      	adds	r3, #7
 80026ea:	f023 0307 	bic.w	r3, r3, #7
 80026ee:	3308      	adds	r3, #8
 80026f0:	9303      	str	r3, [sp, #12]
 80026f2:	9b09      	ldr	r3, [sp, #36]	@ 0x24
 80026f4:	443b      	add	r3, r7
 80026f6:	9309      	str	r3, [sp, #36]	@ 0x24
 80026f8:	e76a      	b.n	80025d0 <_vfiprintf_r+0x78>
 80026fa:	fb0c 3202 	mla	r2, ip, r2, r3
 80026fe:	460c      	mov	r4, r1
 8002700:	2001      	movs	r0, #1
 8002702:	e7a8      	b.n	8002656 <_vfiprintf_r+0xfe>
 8002704:	2300      	movs	r3, #0
 8002706:	3401      	adds	r4, #1
 8002708:	f04f 0c0a 	mov.w	ip, #10
 800270c:	4619      	mov	r1, r3
 800270e:	9305      	str	r3, [sp, #20]
 8002710:	4620      	mov	r0, r4
 8002712:	f810 2b01 	ldrb.w	r2, [r0], #1
 8002716:	3a30      	subs	r2, #48	@ 0x30
 8002718:	2a09      	cmp	r2, #9
 800271a:	d903      	bls.n	8002724 <_vfiprintf_r+0x1cc>
 800271c:	2b00      	cmp	r3, #0
 800271e:	d0c6      	beq.n	80026ae <_vfiprintf_r+0x156>
 8002720:	9105      	str	r1, [sp, #20]
 8002722:	e7c4      	b.n	80026ae <_vfiprintf_r+0x156>
 8002724:	fb0c 2101 	mla	r1, ip, r1, r2
 8002728:	4604      	mov	r4, r0
 800272a:	2301      	movs	r3, #1
 800272c:	e7f0      	b.n	8002710 <_vfiprintf_r+0x1b8>
 800272e:	ab03      	add	r3, sp, #12
 8002730:	462a      	mov	r2, r5
 8002732:	a904      	add	r1, sp, #16
 8002734:	4630      	mov	r0, r6
 8002736:	9300      	str	r3, [sp, #0]
 8002738:	4b11      	ldr	r3, [pc, #68]	@ (8002780 <_vfiprintf_r+0x228>)
 800273a:	f3af 8000 	nop.w
 800273e:	4607      	mov	r7, r0
 8002740:	1c78      	adds	r0, r7, #1
 8002742:	d1d6      	bne.n	80026f2 <_vfiprintf_r+0x19a>
 8002744:	6e6b      	ldr	r3, [r5, #100]	@ 0x64
 8002746:	07d9      	lsls	r1, r3, #31
 8002748:	d405      	bmi.n	8002756 <_vfiprintf_r+0x1fe>
 800274a:	89ab      	ldrh	r3, [r5, #12]
 800274c:	059a      	lsls	r2, r3, #22
 800274e:	d402      	bmi.n	8002756 <_vfiprintf_r+0x1fe>
 8002750:	6da8      	ldr	r0, [r5, #88]	@ 0x58
 8002752:	f7ff fc5f 	bl	8002014 <__retarget_lock_release_recursive>
 8002756:	89ab      	ldrh	r3, [r5, #12]
 8002758:	065b      	lsls	r3, r3, #25
 800275a:	f53f af1f 	bmi.w	800259c <_vfiprintf_r+0x44>
 800275e:	9809      	ldr	r0, [sp, #36]	@ 0x24
 8002760:	e71e      	b.n	80025a0 <_vfiprintf_r+0x48>
 8002762:	ab03      	add	r3, sp, #12
 8002764:	462a      	mov	r2, r5
 8002766:	a904      	add	r1, sp, #16
 8002768:	4630      	mov	r0, r6
 800276a:	9300      	str	r3, [sp, #0]
 800276c:	4b04      	ldr	r3, [pc, #16]	@ (8002780 <_vfiprintf_r+0x228>)
 800276e:	f000 f87d 	bl	800286c <_printf_i>
 8002772:	e7e4      	b.n	800273e <_vfiprintf_r+0x1e6>
 8002774:	0800310f 	.word	0x0800310f
 8002778:	08003119 	.word	0x08003119
 800277c:	00000000 	.word	0x00000000
 8002780:	08002533 	.word	0x08002533
 8002784:	08003115 	.word	0x08003115

08002788 <_printf_common>:
 8002788:	e92d 47f0 	stmdb	sp!, {r4, r5, r6, r7, r8, r9, sl, lr}
 800278c:	4616      	mov	r6, r2
 800278e:	4698      	mov	r8, r3
 8002790:	688a      	ldr	r2, [r1, #8]
 8002792:	4607      	mov	r7, r0
 8002794:	690b      	ldr	r3, [r1, #16]
 8002796:	460c      	mov	r4, r1
 8002798:	f8dd 9020 	ldr.w	r9, [sp, #32]
 800279c:	4293      	cmp	r3, r2
 800279e:	bfb8      	it	lt
 80027a0:	4613      	movlt	r3, r2
 80027a2:	6033      	str	r3, [r6, #0]
 80027a4:	f891 2043 	ldrb.w	r2, [r1, #67]	@ 0x43
 80027a8:	b10a      	cbz	r2, 80027ae <_printf_common+0x26>
 80027aa:	3301      	adds	r3, #1
 80027ac:	6033      	str	r3, [r6, #0]
 80027ae:	6823      	ldr	r3, [r4, #0]
 80027b0:	0699      	lsls	r1, r3, #26
 80027b2:	bf42      	ittt	mi
 80027b4:	6833      	ldrmi	r3, [r6, #0]
 80027b6:	3302      	addmi	r3, #2
 80027b8:	6033      	strmi	r3, [r6, #0]
 80027ba:	6825      	ldr	r5, [r4, #0]
 80027bc:	f015 0506 	ands.w	r5, r5, #6
 80027c0:	d106      	bne.n	80027d0 <_printf_common+0x48>
 80027c2:	f104 0a19 	add.w	sl, r4, #25
 80027c6:	68e3      	ldr	r3, [r4, #12]
 80027c8:	6832      	ldr	r2, [r6, #0]
 80027ca:	1a9b      	subs	r3, r3, r2
 80027cc:	42ab      	cmp	r3, r5
 80027ce:	dc2b      	bgt.n	8002828 <_printf_common+0xa0>
 80027d0:	f894 3043 	ldrb.w	r3, [r4, #67]	@ 0x43
 80027d4:	6822      	ldr	r2, [r4, #0]
 80027d6:	3b00      	subs	r3, #0
 80027d8:	bf18      	it	ne
 80027da:	2301      	movne	r3, #1
 80027dc:	0692      	lsls	r2, r2, #26
 80027de:	d430      	bmi.n	8002842 <_printf_common+0xba>
 80027e0:	f104 0243 	add.w	r2, r4, #67	@ 0x43
 80027e4:	4641      	mov	r1, r8
 80027e6:	4638      	mov	r0, r7
 80027e8:	47c8      	blx	r9
 80027ea:	3001      	adds	r0, #1
 80027ec:	d023      	beq.n	8002836 <_printf_common+0xae>
 80027ee:	6823      	ldr	r3, [r4, #0]
 80027f0:	341a      	adds	r4, #26
 80027f2:	f854 2c0a 	ldr.w	r2, [r4, #-10]
 80027f6:	f003 0306 	and.w	r3, r3, #6
 80027fa:	2b04      	cmp	r3, #4
 80027fc:	bf0a      	itet	eq
 80027fe:	f854 5c0e 	ldreq.w	r5, [r4, #-14]
 8002802:	2500      	movne	r5, #0
 8002804:	6833      	ldreq	r3, [r6, #0]
 8002806:	f04f 0600 	mov.w	r6, #0
 800280a:	bf08      	it	eq
 800280c:	1aed      	subeq	r5, r5, r3
 800280e:	f854 3c12 	ldr.w	r3, [r4, #-18]
 8002812:	bf08      	it	eq
 8002814:	ea25 75e5 	biceq.w	r5, r5, r5, asr #31
 8002818:	4293      	cmp	r3, r2
 800281a:	bfc4      	itt	gt
 800281c:	1a9b      	subgt	r3, r3, r2
 800281e:	18ed      	addgt	r5, r5, r3
 8002820:	42b5      	cmp	r5, r6
 8002822:	d11a      	bne.n	800285a <_printf_common+0xd2>
 8002824:	2000      	movs	r0, #0
 8002826:	e008      	b.n	800283a <_printf_common+0xb2>
 8002828:	2301      	movs	r3, #1
 800282a:	4652      	mov	r2, sl
 800282c:	4641      	mov	r1, r8
 800282e:	4638      	mov	r0, r7
 8002830:	47c8      	blx	r9
 8002832:	3001      	adds	r0, #1
 8002834:	d103      	bne.n	800283e <_printf_common+0xb6>
 8002836:	f04f 30ff 	mov.w	r0, #4294967295
 800283a:	e8bd 87f0 	ldmia.w	sp!, {r4, r5, r6, r7, r8, r9, sl, pc}
 800283e:	3501      	adds	r5, #1
 8002840:	e7c1      	b.n	80027c6 <_printf_common+0x3e>
 8002842:	18e1      	adds	r1, r4, r3
 8002844:	1c5a      	adds	r2, r3, #1
 8002846:	2030      	movs	r0, #48	@ 0x30
 8002848:	3302      	adds	r3, #2
 800284a:	4422      	add	r2, r4
 800284c:	f881 0043 	strb.w	r0, [r1, #67]	@ 0x43
 8002850:	f894 1045 	ldrb.w	r1, [r4, #69]	@ 0x45
 8002854:	f882 1043 	strb.w	r1, [r2, #67]	@ 0x43
 8002858:	e7c2      	b.n	80027e0 <_printf_common+0x58>
 800285a:	2301      	movs	r3, #1
 800285c:	4622      	mov	r2, r4
 800285e:	4641      	mov	r1, r8
 8002860:	4638      	mov	r0, r7
 8002862:	47c8      	blx	r9
 8002864:	3001      	adds	r0, #1
 8002866:	d0e6      	beq.n	8002836 <_printf_common+0xae>
 8002868:	3601      	adds	r6, #1
 800286a:	e7d9      	b.n	8002820 <_printf_common+0x98>

0800286c <_printf_i>:
 800286c:	e92d 47ff 	stmdb	sp!, {r0, r1, r2, r3, r4, r5, r6, r7, r8, r9, sl, lr}
 8002870:	7e0f      	ldrb	r7, [r1, #24]
 8002872:	4691      	mov	r9, r2
 8002874:	4680      	mov	r8, r0
 8002876:	460c      	mov	r4, r1
 8002878:	2f78      	cmp	r7, #120	@ 0x78
 800287a:	469a      	mov	sl, r3
 800287c:	9e0c      	ldr	r6, [sp, #48]	@ 0x30
 800287e:	f101 0243 	add.w	r2, r1, #67	@ 0x43
 8002882:	d807      	bhi.n	8002894 <_printf_i+0x28>
 8002884:	2f62      	cmp	r7, #98	@ 0x62
 8002886:	d80a      	bhi.n	800289e <_printf_i+0x32>
 8002888:	2f00      	cmp	r7, #0
 800288a:	f000 80d1 	beq.w	8002a30 <_printf_i+0x1c4>
 800288e:	2f58      	cmp	r7, #88	@ 0x58
 8002890:	f000 80b8 	beq.w	8002a04 <_printf_i+0x198>
 8002894:	f104 0642 	add.w	r6, r4, #66	@ 0x42
 8002898:	f884 7042 	strb.w	r7, [r4, #66]	@ 0x42
 800289c:	e03a      	b.n	8002914 <_printf_i+0xa8>
 800289e:	f1a7 0363 	sub.w	r3, r7, #99	@ 0x63
 80028a2:	2b15      	cmp	r3, #21
 80028a4:	d8f6      	bhi.n	8002894 <_printf_i+0x28>
 80028a6:	a101      	add	r1, pc, #4	@ (adr r1, 80028ac <_printf_i+0x40>)
 80028a8:	f851 f023 	ldr.w	pc, [r1, r3, lsl #2]
 80028ac:	08002905 	.word	0x08002905
 80028b0:	08002919 	.word	0x08002919
 80028b4:	08002895 	.word	0x08002895
 80028b8:	08002895 	.word	0x08002895
 80028bc:	08002895 	.word	0x08002895
 80028c0:	08002895 	.word	0x08002895
 80028c4:	08002919 	.word	0x08002919
 80028c8:	08002895 	.word	0x08002895
 80028cc:	08002895 	.word	0x08002895
 80028d0:	08002895 	.word	0x08002895
 80028d4:	08002895 	.word	0x08002895
 80028d8:	08002a17 	.word	0x08002a17
 80028dc:	08002943 	.word	0x08002943
 80028e0:	080029d1 	.word	0x080029d1
 80028e4:	08002895 	.word	0x08002895
 80028e8:	08002895 	.word	0x08002895
 80028ec:	08002a39 	.word	0x08002a39
 80028f0:	08002895 	.word	0x08002895
 80028f4:	08002943 	.word	0x08002943
 80028f8:	08002895 	.word	0x08002895
 80028fc:	08002895 	.word	0x08002895
 8002900:	080029d9 	.word	0x080029d9
 8002904:	6833      	ldr	r3, [r6, #0]
 8002906:	1d1a      	adds	r2, r3, #4
 8002908:	681b      	ldr	r3, [r3, #0]
 800290a:	6032      	str	r2, [r6, #0]
 800290c:	f104 0642 	add.w	r6, r4, #66	@ 0x42
 8002910:	f884 3042 	strb.w	r3, [r4, #66]	@ 0x42
 8002914:	2301      	movs	r3, #1
 8002916:	e09c      	b.n	8002a52 <_printf_i+0x1e6>
 8002918:	6833      	ldr	r3, [r6, #0]
 800291a:	6820      	ldr	r0, [r4, #0]
 800291c:	1d19      	adds	r1, r3, #4
 800291e:	6031      	str	r1, [r6, #0]
 8002920:	0606      	lsls	r6, r0, #24
 8002922:	d501      	bpl.n	8002928 <_printf_i+0xbc>
 8002924:	681d      	ldr	r5, [r3, #0]
 8002926:	e003      	b.n	8002930 <_printf_i+0xc4>
 8002928:	0645      	lsls	r5, r0, #25
 800292a:	d5fb      	bpl.n	8002924 <_printf_i+0xb8>
 800292c:	f9b3 5000 	ldrsh.w	r5, [r3]
 8002930:	2d00      	cmp	r5, #0
 8002932:	da03      	bge.n	800293c <_printf_i+0xd0>
 8002934:	232d      	movs	r3, #45	@ 0x2d
 8002936:	426d      	negs	r5, r5
 8002938:	f884 3043 	strb.w	r3, [r4, #67]	@ 0x43
 800293c:	4858      	ldr	r0, [pc, #352]	@ (8002aa0 <_printf_i+0x234>)
 800293e:	230a      	movs	r3, #10
 8002940:	e011      	b.n	8002966 <_printf_i+0xfa>
 8002942:	6821      	ldr	r1, [r4, #0]
 8002944:	6833      	ldr	r3, [r6, #0]
 8002946:	0608      	lsls	r0, r1, #24
 8002948:	f853 5b04 	ldr.w	r5, [r3], #4
 800294c:	d402      	bmi.n	8002954 <_printf_i+0xe8>
 800294e:	0649      	lsls	r1, r1, #25
 8002950:	bf48      	it	mi
 8002952:	b2ad      	uxthmi	r5, r5
 8002954:	2f6f      	cmp	r7, #111	@ 0x6f
 8002956:	6033      	str	r3, [r6, #0]
 8002958:	4851      	ldr	r0, [pc, #324]	@ (8002aa0 <_printf_i+0x234>)
 800295a:	bf14      	ite	ne
 800295c:	230a      	movne	r3, #10
 800295e:	2308      	moveq	r3, #8
 8002960:	2100      	movs	r1, #0
 8002962:	f884 1043 	strb.w	r1, [r4, #67]	@ 0x43
 8002966:	6866      	ldr	r6, [r4, #4]
 8002968:	2e00      	cmp	r6, #0
 800296a:	60a6      	str	r6, [r4, #8]
 800296c:	db05      	blt.n	800297a <_printf_i+0x10e>
 800296e:	6821      	ldr	r1, [r4, #0]
 8002970:	432e      	orrs	r6, r5
 8002972:	f021 0104 	bic.w	r1, r1, #4
 8002976:	6021      	str	r1, [r4, #0]
 8002978:	d04b      	beq.n	8002a12 <_printf_i+0x1a6>
 800297a:	4616      	mov	r6, r2
 800297c:	fbb5 f1f3 	udiv	r1, r5, r3
 8002980:	fb03 5711 	mls	r7, r3, r1, r5
 8002984:	5dc7      	ldrb	r7, [r0, r7]
 8002986:	f806 7d01 	strb.w	r7, [r6, #-1]!
 800298a:	462f      	mov	r7, r5
 800298c:	460d      	mov	r5, r1
 800298e:	42bb      	cmp	r3, r7
 8002990:	d9f4      	bls.n	800297c <_printf_i+0x110>
 8002992:	2b08      	cmp	r3, #8
 8002994:	d10b      	bne.n	80029ae <_printf_i+0x142>
 8002996:	6823      	ldr	r3, [r4, #0]
 8002998:	07df      	lsls	r7, r3, #31
 800299a:	d508      	bpl.n	80029ae <_printf_i+0x142>
 800299c:	6923      	ldr	r3, [r4, #16]
 800299e:	6861      	ldr	r1, [r4, #4]
 80029a0:	4299      	cmp	r1, r3
 80029a2:	bfde      	ittt	le
 80029a4:	2330      	movle	r3, #48	@ 0x30
 80029a6:	f806 3c01 	strble.w	r3, [r6, #-1]
 80029aa:	f106 36ff 	addle.w	r6, r6, #4294967295
 80029ae:	1b92      	subs	r2, r2, r6
 80029b0:	6122      	str	r2, [r4, #16]
 80029b2:	464b      	mov	r3, r9
 80029b4:	aa03      	add	r2, sp, #12
 80029b6:	4621      	mov	r1, r4
 80029b8:	4640      	mov	r0, r8
 80029ba:	f8cd a000 	str.w	sl, [sp]
 80029be:	f7ff fee3 	bl	8002788 <_printf_common>
 80029c2:	3001      	adds	r0, #1
 80029c4:	d14a      	bne.n	8002a5c <_printf_i+0x1f0>
 80029c6:	f04f 30ff 	mov.w	r0, #4294967295
 80029ca:	b004      	add	sp, #16
 80029cc:	e8bd 87f0 	ldmia.w	sp!, {r4, r5, r6, r7, r8, r9, sl, pc}
 80029d0:	6823      	ldr	r3, [r4, #0]
 80029d2:	f043 0320 	orr.w	r3, r3, #32
 80029d6:	6023      	str	r3, [r4, #0]
 80029d8:	2778      	movs	r7, #120	@ 0x78
 80029da:	4832      	ldr	r0, [pc, #200]	@ (8002aa4 <_printf_i+0x238>)
 80029dc:	6823      	ldr	r3, [r4, #0]
 80029de:	f884 7045 	strb.w	r7, [r4, #69]	@ 0x45
 80029e2:	061f      	lsls	r7, r3, #24
 80029e4:	6831      	ldr	r1, [r6, #0]
 80029e6:	f851 5b04 	ldr.w	r5, [r1], #4
 80029ea:	d402      	bmi.n	80029f2 <_printf_i+0x186>
 80029ec:	065f      	lsls	r7, r3, #25
 80029ee:	bf48      	it	mi
 80029f0:	b2ad      	uxthmi	r5, r5
 80029f2:	6031      	str	r1, [r6, #0]
 80029f4:	07d9      	lsls	r1, r3, #31
 80029f6:	bf44      	itt	mi
 80029f8:	f043 0320 	orrmi.w	r3, r3, #32
 80029fc:	6023      	strmi	r3, [r4, #0]
 80029fe:	b11d      	cbz	r5, 8002a08 <_printf_i+0x19c>
 8002a00:	2310      	movs	r3, #16
 8002a02:	e7ad      	b.n	8002960 <_printf_i+0xf4>
 8002a04:	4826      	ldr	r0, [pc, #152]	@ (8002aa0 <_printf_i+0x234>)
 8002a06:	e7e9      	b.n	80029dc <_printf_i+0x170>
 8002a08:	6823      	ldr	r3, [r4, #0]
 8002a0a:	f023 0320 	bic.w	r3, r3, #32
 8002a0e:	6023      	str	r3, [r4, #0]
 8002a10:	e7f6      	b.n	8002a00 <_printf_i+0x194>
 8002a12:	4616      	mov	r6, r2
 8002a14:	e7bd      	b.n	8002992 <_printf_i+0x126>
 8002a16:	6833      	ldr	r3, [r6, #0]
 8002a18:	6825      	ldr	r5, [r4, #0]
 8002a1a:	1d18      	adds	r0, r3, #4
 8002a1c:	6961      	ldr	r1, [r4, #20]
 8002a1e:	6030      	str	r0, [r6, #0]
 8002a20:	062e      	lsls	r6, r5, #24
 8002a22:	681b      	ldr	r3, [r3, #0]
 8002a24:	d501      	bpl.n	8002a2a <_printf_i+0x1be>
 8002a26:	6019      	str	r1, [r3, #0]
 8002a28:	e002      	b.n	8002a30 <_printf_i+0x1c4>
 8002a2a:	0668      	lsls	r0, r5, #25
 8002a2c:	d5fb      	bpl.n	8002a26 <_printf_i+0x1ba>
 8002a2e:	8019      	strh	r1, [r3, #0]
 8002a30:	2300      	movs	r3, #0
 8002a32:	4616      	mov	r6, r2
 8002a34:	6123      	str	r3, [r4, #16]
 8002a36:	e7bc      	b.n	80029b2 <_printf_i+0x146>
 8002a38:	6833      	ldr	r3, [r6, #0]
 8002a3a:	2100      	movs	r1, #0
 8002a3c:	1d1a      	adds	r2, r3, #4
 8002a3e:	6032      	str	r2, [r6, #0]
 8002a40:	681e      	ldr	r6, [r3, #0]
 8002a42:	6862      	ldr	r2, [r4, #4]
 8002a44:	4630      	mov	r0, r6
 8002a46:	f000 f99b 	bl	8002d80 <memchr>
 8002a4a:	b108      	cbz	r0, 8002a50 <_printf_i+0x1e4>
 8002a4c:	1b80      	subs	r0, r0, r6
 8002a4e:	6060      	str	r0, [r4, #4]
 8002a50:	6863      	ldr	r3, [r4, #4]
 8002a52:	6123      	str	r3, [r4, #16]
 8002a54:	2300      	movs	r3, #0
 8002a56:	f884 3043 	strb.w	r3, [r4, #67]	@ 0x43
 8002a5a:	e7aa      	b.n	80029b2 <_printf_i+0x146>
 8002a5c:	6923      	ldr	r3, [r4, #16]
 8002a5e:	4632      	mov	r2, r6
 8002a60:	4649      	mov	r1, r9
 8002a62:	4640      	mov	r0, r8
 8002a64:	47d0      	blx	sl
 8002a66:	3001      	adds	r0, #1
 8002a68:	d0ad      	beq.n	80029c6 <_printf_i+0x15a>
 8002a6a:	6823      	ldr	r3, [r4, #0]
 8002a6c:	079b      	lsls	r3, r3, #30
 8002a6e:	d413      	bmi.n	8002a98 <_printf_i+0x22c>
 8002a70:	68e0      	ldr	r0, [r4, #12]
 8002a72:	9b03      	ldr	r3, [sp, #12]
 8002a74:	4298      	cmp	r0, r3
 8002a76:	bfb8      	it	lt
 8002a78:	4618      	movlt	r0, r3
 8002a7a:	e7a6      	b.n	80029ca <_printf_i+0x15e>
 8002a7c:	2301      	movs	r3, #1
 8002a7e:	4632      	mov	r2, r6
 8002a80:	4649      	mov	r1, r9
 8002a82:	4640      	mov	r0, r8
 8002a84:	47d0      	blx	sl
 8002a86:	3001      	adds	r0, #1
 8002a88:	d09d      	beq.n	80029c6 <_printf_i+0x15a>
 8002a8a:	3501      	adds	r5, #1
 8002a8c:	68e3      	ldr	r3, [r4, #12]
 8002a8e:	9903      	ldr	r1, [sp, #12]
 8002a90:	1a5b      	subs	r3, r3, r1
 8002a92:	42ab      	cmp	r3, r5
 8002a94:	dcf2      	bgt.n	8002a7c <_printf_i+0x210>
 8002a96:	e7eb      	b.n	8002a70 <_printf_i+0x204>
 8002a98:	2500      	movs	r5, #0
 8002a9a:	f104 0619 	add.w	r6, r4, #25
 8002a9e:	e7f5      	b.n	8002a8c <_printf_i+0x220>
 8002aa0:	08003120 	.word	0x08003120
 8002aa4:	08003131 	.word	0x08003131

08002aa8 <__sflush_r>:
 8002aa8:	f9b1 200c 	ldrsh.w	r2, [r1, #12]
 8002aac:	e92d 41f0 	stmdb	sp!, {r4, r5, r6, r7, r8, lr}
 8002ab0:	0716      	lsls	r6, r2, #28
 8002ab2:	4605      	mov	r5, r0
 8002ab4:	460c      	mov	r4, r1
 8002ab6:	d454      	bmi.n	8002b62 <__sflush_r+0xba>
 8002ab8:	684b      	ldr	r3, [r1, #4]
 8002aba:	2b00      	cmp	r3, #0
 8002abc:	dc02      	bgt.n	8002ac4 <__sflush_r+0x1c>
 8002abe:	6c0b      	ldr	r3, [r1, #64]	@ 0x40
 8002ac0:	2b00      	cmp	r3, #0
 8002ac2:	dd48      	ble.n	8002b56 <__sflush_r+0xae>
 8002ac4:	6ae6      	ldr	r6, [r4, #44]	@ 0x2c
 8002ac6:	2e00      	cmp	r6, #0
 8002ac8:	d045      	beq.n	8002b56 <__sflush_r+0xae>
 8002aca:	2300      	movs	r3, #0
 8002acc:	f412 5280 	ands.w	r2, r2, #4096	@ 0x1000
 8002ad0:	682f      	ldr	r7, [r5, #0]
 8002ad2:	6a21      	ldr	r1, [r4, #32]
 8002ad4:	602b      	str	r3, [r5, #0]
 8002ad6:	d030      	beq.n	8002b3a <__sflush_r+0x92>
 8002ad8:	6d62      	ldr	r2, [r4, #84]	@ 0x54
 8002ada:	89a3      	ldrh	r3, [r4, #12]
 8002adc:	0759      	lsls	r1, r3, #29
 8002ade:	d505      	bpl.n	8002aec <__sflush_r+0x44>
 8002ae0:	6863      	ldr	r3, [r4, #4]
 8002ae2:	1ad2      	subs	r2, r2, r3
 8002ae4:	6b63      	ldr	r3, [r4, #52]	@ 0x34
 8002ae6:	b10b      	cbz	r3, 8002aec <__sflush_r+0x44>
 8002ae8:	6c23      	ldr	r3, [r4, #64]	@ 0x40
 8002aea:	1ad2      	subs	r2, r2, r3
 8002aec:	2300      	movs	r3, #0
 8002aee:	6ae6      	ldr	r6, [r4, #44]	@ 0x2c
 8002af0:	6a21      	ldr	r1, [r4, #32]
 8002af2:	4628      	mov	r0, r5
 8002af4:	47b0      	blx	r6
 8002af6:	1c43      	adds	r3, r0, #1
 8002af8:	89a3      	ldrh	r3, [r4, #12]
 8002afa:	d106      	bne.n	8002b0a <__sflush_r+0x62>
 8002afc:	6829      	ldr	r1, [r5, #0]
 8002afe:	291d      	cmp	r1, #29
 8002b00:	d82b      	bhi.n	8002b5a <__sflush_r+0xb2>
 8002b02:	4a2a      	ldr	r2, [pc, #168]	@ (8002bac <__sflush_r+0x104>)
 8002b04:	40ca      	lsrs	r2, r1
 8002b06:	07d6      	lsls	r6, r2, #31
 8002b08:	d527      	bpl.n	8002b5a <__sflush_r+0xb2>
 8002b0a:	2200      	movs	r2, #0
 8002b0c:	04d9      	lsls	r1, r3, #19
 8002b0e:	6062      	str	r2, [r4, #4]
 8002b10:	6922      	ldr	r2, [r4, #16]
 8002b12:	6022      	str	r2, [r4, #0]
 8002b14:	d504      	bpl.n	8002b20 <__sflush_r+0x78>
 8002b16:	1c42      	adds	r2, r0, #1
 8002b18:	d101      	bne.n	8002b1e <__sflush_r+0x76>
 8002b1a:	682b      	ldr	r3, [r5, #0]
 8002b1c:	b903      	cbnz	r3, 8002b20 <__sflush_r+0x78>
 8002b1e:	6560      	str	r0, [r4, #84]	@ 0x54
 8002b20:	6b61      	ldr	r1, [r4, #52]	@ 0x34
 8002b22:	602f      	str	r7, [r5, #0]
 8002b24:	b1b9      	cbz	r1, 8002b56 <__sflush_r+0xae>
 8002b26:	f104 0344 	add.w	r3, r4, #68	@ 0x44
 8002b2a:	4299      	cmp	r1, r3
 8002b2c:	d002      	beq.n	8002b34 <__sflush_r+0x8c>
 8002b2e:	4628      	mov	r0, r5
 8002b30:	f7ff fa90 	bl	8002054 <_free_r>
 8002b34:	2300      	movs	r3, #0
 8002b36:	6363      	str	r3, [r4, #52]	@ 0x34
 8002b38:	e00d      	b.n	8002b56 <__sflush_r+0xae>
 8002b3a:	2301      	movs	r3, #1
 8002b3c:	4628      	mov	r0, r5
 8002b3e:	47b0      	blx	r6
 8002b40:	4602      	mov	r2, r0
 8002b42:	1c50      	adds	r0, r2, #1
 8002b44:	d1c9      	bne.n	8002ada <__sflush_r+0x32>
 8002b46:	682b      	ldr	r3, [r5, #0]
 8002b48:	2b00      	cmp	r3, #0
 8002b4a:	d0c6      	beq.n	8002ada <__sflush_r+0x32>
 8002b4c:	2b1d      	cmp	r3, #29
 8002b4e:	d001      	beq.n	8002b54 <__sflush_r+0xac>
 8002b50:	2b16      	cmp	r3, #22
 8002b52:	d11d      	bne.n	8002b90 <__sflush_r+0xe8>
 8002b54:	602f      	str	r7, [r5, #0]
 8002b56:	2000      	movs	r0, #0
 8002b58:	e021      	b.n	8002b9e <__sflush_r+0xf6>
 8002b5a:	f043 0340 	orr.w	r3, r3, #64	@ 0x40
 8002b5e:	b21b      	sxth	r3, r3
 8002b60:	e01a      	b.n	8002b98 <__sflush_r+0xf0>
 8002b62:	690f      	ldr	r7, [r1, #16]
 8002b64:	2f00      	cmp	r7, #0
 8002b66:	d0f6      	beq.n	8002b56 <__sflush_r+0xae>
 8002b68:	0793      	lsls	r3, r2, #30
 8002b6a:	680e      	ldr	r6, [r1, #0]
 8002b6c:	600f      	str	r7, [r1, #0]
 8002b6e:	bf0c      	ite	eq
 8002b70:	694b      	ldreq	r3, [r1, #20]
 8002b72:	2300      	movne	r3, #0
 8002b74:	eba6 0807 	sub.w	r8, r6, r7
 8002b78:	608b      	str	r3, [r1, #8]
 8002b7a:	f1b8 0f00 	cmp.w	r8, #0
 8002b7e:	ddea      	ble.n	8002b56 <__sflush_r+0xae>
 8002b80:	4643      	mov	r3, r8
 8002b82:	463a      	mov	r2, r7
 8002b84:	6a21      	ldr	r1, [r4, #32]
 8002b86:	4628      	mov	r0, r5
 8002b88:	6aa6      	ldr	r6, [r4, #40]	@ 0x28
 8002b8a:	47b0      	blx	r6
 8002b8c:	2800      	cmp	r0, #0
 8002b8e:	dc08      	bgt.n	8002ba2 <__sflush_r+0xfa>
 8002b90:	f9b4 300c 	ldrsh.w	r3, [r4, #12]
 8002b94:	f043 0340 	orr.w	r3, r3, #64	@ 0x40
 8002b98:	f04f 30ff 	mov.w	r0, #4294967295
 8002b9c:	81a3      	strh	r3, [r4, #12]
 8002b9e:	e8bd 81f0 	ldmia.w	sp!, {r4, r5, r6, r7, r8, pc}
 8002ba2:	4407      	add	r7, r0
 8002ba4:	eba8 0800 	sub.w	r8, r8, r0
 8002ba8:	e7e7      	b.n	8002b7a <__sflush_r+0xd2>
 8002baa:	bf00      	nop
 8002bac:	20400001 	.word	0x20400001

08002bb0 <_fflush_r>:
 8002bb0:	b538      	push	{r3, r4, r5, lr}
 8002bb2:	690b      	ldr	r3, [r1, #16]
 8002bb4:	4605      	mov	r5, r0
 8002bb6:	460c      	mov	r4, r1
 8002bb8:	b913      	cbnz	r3, 8002bc0 <_fflush_r+0x10>
 8002bba:	2500      	movs	r5, #0
 8002bbc:	4628      	mov	r0, r5
 8002bbe:	bd38      	pop	{r3, r4, r5, pc}
 8002bc0:	b118      	cbz	r0, 8002bca <_fflush_r+0x1a>
 8002bc2:	6a03      	ldr	r3, [r0, #32]
 8002bc4:	b90b      	cbnz	r3, 8002bca <_fflush_r+0x1a>
 8002bc6:	f7fe fff1 	bl	8001bac <__sinit>
 8002bca:	f9b4 300c 	ldrsh.w	r3, [r4, #12]
 8002bce:	2b00      	cmp	r3, #0
 8002bd0:	d0f3      	beq.n	8002bba <_fflush_r+0xa>
 8002bd2:	6e62      	ldr	r2, [r4, #100]	@ 0x64
 8002bd4:	07d0      	lsls	r0, r2, #31
 8002bd6:	d404      	bmi.n	8002be2 <_fflush_r+0x32>
 8002bd8:	0599      	lsls	r1, r3, #22
 8002bda:	d402      	bmi.n	8002be2 <_fflush_r+0x32>
 8002bdc:	6da0      	ldr	r0, [r4, #88]	@ 0x58
 8002bde:	f7ff fa18 	bl	8002012 <__retarget_lock_acquire_recursive>
 8002be2:	4628      	mov	r0, r5
 8002be4:	4621      	mov	r1, r4
 8002be6:	f7ff ff5f 	bl	8002aa8 <__sflush_r>
 8002bea:	6e63      	ldr	r3, [r4, #100]	@ 0x64
 8002bec:	4605      	mov	r5, r0
 8002bee:	07da      	lsls	r2, r3, #31
 8002bf0:	d4e4      	bmi.n	8002bbc <_fflush_r+0xc>
 8002bf2:	89a3      	ldrh	r3, [r4, #12]
 8002bf4:	059b      	lsls	r3, r3, #22
 8002bf6:	d4e1      	bmi.n	8002bbc <_fflush_r+0xc>
 8002bf8:	6da0      	ldr	r0, [r4, #88]	@ 0x58
 8002bfa:	f7ff fa0b 	bl	8002014 <__retarget_lock_release_recursive>
 8002bfe:	e7dd      	b.n	8002bbc <_fflush_r+0xc>

08002c00 <fiprintf>:
 8002c00:	b40e      	push	{r1, r2, r3}
 8002c02:	b503      	push	{r0, r1, lr}
 8002c04:	ab03      	add	r3, sp, #12
 8002c06:	4601      	mov	r1, r0
 8002c08:	4805      	ldr	r0, [pc, #20]	@ (8002c20 <fiprintf+0x20>)
 8002c0a:	f853 2b04 	ldr.w	r2, [r3], #4
 8002c0e:	6800      	ldr	r0, [r0, #0]
 8002c10:	9301      	str	r3, [sp, #4]
 8002c12:	f7ff fca1 	bl	8002558 <_vfiprintf_r>
 8002c16:	b002      	add	sp, #8
 8002c18:	f85d eb04 	ldr.w	lr, [sp], #4
 8002c1c:	b003      	add	sp, #12
 8002c1e:	4770      	bx	lr
 8002c20:	20000158 	.word	0x20000158

08002c24 <__swhatbuf_r>:
 8002c24:	b570      	push	{r4, r5, r6, lr}
 8002c26:	460c      	mov	r4, r1
 8002c28:	f9b1 100e 	ldrsh.w	r1, [r1, #14]
 8002c2c:	b096      	sub	sp, #88	@ 0x58
 8002c2e:	4615      	mov	r5, r2
 8002c30:	2900      	cmp	r1, #0
 8002c32:	461e      	mov	r6, r3
 8002c34:	da0c      	bge.n	8002c50 <__swhatbuf_r+0x2c>
 8002c36:	89a3      	ldrh	r3, [r4, #12]
 8002c38:	2100      	movs	r1, #0
 8002c3a:	f013 0f80 	tst.w	r3, #128	@ 0x80
 8002c3e:	bf14      	ite	ne
 8002c40:	2340      	movne	r3, #64	@ 0x40
 8002c42:	f44f 6380 	moveq.w	r3, #1024	@ 0x400
 8002c46:	2000      	movs	r0, #0
 8002c48:	6031      	str	r1, [r6, #0]
 8002c4a:	602b      	str	r3, [r5, #0]
 8002c4c:	b016      	add	sp, #88	@ 0x58
 8002c4e:	bd70      	pop	{r4, r5, r6, pc}
 8002c50:	466a      	mov	r2, sp
 8002c52:	f000 f863 	bl	8002d1c <_fstat_r>
 8002c56:	2800      	cmp	r0, #0
 8002c58:	dbed      	blt.n	8002c36 <__swhatbuf_r+0x12>
 8002c5a:	9901      	ldr	r1, [sp, #4]
 8002c5c:	f401 4170 	and.w	r1, r1, #61440	@ 0xf000
 8002c60:	f5a1 5300 	sub.w	r3, r1, #8192	@ 0x2000
 8002c64:	4259      	negs	r1, r3
 8002c66:	4159      	adcs	r1, r3
 8002c68:	f44f 6380 	mov.w	r3, #1024	@ 0x400
 8002c6c:	e7eb      	b.n	8002c46 <__swhatbuf_r+0x22>

08002c6e <__smakebuf_r>:
 8002c6e:	898b      	ldrh	r3, [r1, #12]
 8002c70:	b5f7      	push	{r0, r1, r2, r4, r5, r6, r7, lr}
 8002c72:	079d      	lsls	r5, r3, #30
 8002c74:	4606      	mov	r6, r0
 8002c76:	460c      	mov	r4, r1
 8002c78:	d507      	bpl.n	8002c8a <__smakebuf_r+0x1c>
 8002c7a:	f104 0347 	add.w	r3, r4, #71	@ 0x47
 8002c7e:	6023      	str	r3, [r4, #0]
 8002c80:	6123      	str	r3, [r4, #16]
 8002c82:	2301      	movs	r3, #1
 8002c84:	6163      	str	r3, [r4, #20]
 8002c86:	b003      	add	sp, #12
 8002c88:	bdf0      	pop	{r4, r5, r6, r7, pc}
 8002c8a:	ab01      	add	r3, sp, #4
 8002c8c:	466a      	mov	r2, sp
 8002c8e:	f7ff ffc9 	bl	8002c24 <__swhatbuf_r>
 8002c92:	9f00      	ldr	r7, [sp, #0]
 8002c94:	4605      	mov	r5, r0
 8002c96:	4630      	mov	r0, r6
 8002c98:	4639      	mov	r1, r7
 8002c9a:	f7ff fa4f 	bl	800213c <_malloc_r>
 8002c9e:	b948      	cbnz	r0, 8002cb4 <__smakebuf_r+0x46>
 8002ca0:	f9b4 300c 	ldrsh.w	r3, [r4, #12]
 8002ca4:	059a      	lsls	r2, r3, #22
 8002ca6:	d4ee      	bmi.n	8002c86 <__smakebuf_r+0x18>
 8002ca8:	f023 0303 	bic.w	r3, r3, #3
 8002cac:	f043 0302 	orr.w	r3, r3, #2
 8002cb0:	81a3      	strh	r3, [r4, #12]
 8002cb2:	e7e2      	b.n	8002c7a <__smakebuf_r+0xc>
 8002cb4:	89a3      	ldrh	r3, [r4, #12]
 8002cb6:	6020      	str	r0, [r4, #0]
 8002cb8:	f043 0380 	orr.w	r3, r3, #128	@ 0x80
 8002cbc:	81a3      	strh	r3, [r4, #12]
 8002cbe:	9b01      	ldr	r3, [sp, #4]
 8002cc0:	e9c4 0704 	strd	r0, r7, [r4, #16]
 8002cc4:	b15b      	cbz	r3, 8002cde <__smakebuf_r+0x70>
 8002cc6:	f9b4 100e 	ldrsh.w	r1, [r4, #14]
 8002cca:	4630      	mov	r0, r6
 8002ccc:	f000 f838 	bl	8002d40 <_isatty_r>
 8002cd0:	b128      	cbz	r0, 8002cde <__smakebuf_r+0x70>
 8002cd2:	89a3      	ldrh	r3, [r4, #12]
 8002cd4:	f023 0303 	bic.w	r3, r3, #3
 8002cd8:	f043 0301 	orr.w	r3, r3, #1
 8002cdc:	81a3      	strh	r3, [r4, #12]
 8002cde:	89a3      	ldrh	r3, [r4, #12]
 8002ce0:	431d      	orrs	r5, r3
 8002ce2:	81a5      	strh	r5, [r4, #12]
 8002ce4:	e7cf      	b.n	8002c86 <__smakebuf_r+0x18>

08002ce6 <memmove>:
 8002ce6:	4288      	cmp	r0, r1
 8002ce8:	b510      	push	{r4, lr}
 8002cea:	eb01 0402 	add.w	r4, r1, r2
 8002cee:	d902      	bls.n	8002cf6 <memmove+0x10>
 8002cf0:	4284      	cmp	r4, r0
 8002cf2:	4623      	mov	r3, r4
 8002cf4:	d807      	bhi.n	8002d06 <memmove+0x20>
 8002cf6:	1e43      	subs	r3, r0, #1
 8002cf8:	42a1      	cmp	r1, r4
 8002cfa:	d008      	beq.n	8002d0e <memmove+0x28>
 8002cfc:	f811 2b01 	ldrb.w	r2, [r1], #1
 8002d00:	f803 2f01 	strb.w	r2, [r3, #1]!
 8002d04:	e7f8      	b.n	8002cf8 <memmove+0x12>
 8002d06:	4402      	add	r2, r0
 8002d08:	4601      	mov	r1, r0
 8002d0a:	428a      	cmp	r2, r1
 8002d0c:	d100      	bne.n	8002d10 <memmove+0x2a>
 8002d0e:	bd10      	pop	{r4, pc}
 8002d10:	f813 4d01 	ldrb.w	r4, [r3, #-1]!
 8002d14:	f802 4d01 	strb.w	r4, [r2, #-1]!
 8002d18:	e7f7      	b.n	8002d0a <memmove+0x24>
	...

08002d1c <_fstat_r>:
 8002d1c:	b538      	push	{r3, r4, r5, lr}
 8002d1e:	2300      	movs	r3, #0
 8002d20:	4d06      	ldr	r5, [pc, #24]	@ (8002d3c <_fstat_r+0x20>)
 8002d22:	4604      	mov	r4, r0
 8002d24:	4608      	mov	r0, r1
 8002d26:	4611      	mov	r1, r2
 8002d28:	602b      	str	r3, [r5, #0]
 8002d2a:	f7fe fd85 	bl	8001838 <_fstat>
 8002d2e:	1c43      	adds	r3, r0, #1
 8002d30:	d102      	bne.n	8002d38 <_fstat_r+0x1c>
 8002d32:	682b      	ldr	r3, [r5, #0]
 8002d34:	b103      	cbz	r3, 8002d38 <_fstat_r+0x1c>
 8002d36:	6023      	str	r3, [r4, #0]
 8002d38:	bd38      	pop	{r3, r4, r5, pc}
 8002d3a:	bf00      	nop
 8002d3c:	20000414 	.word	0x20000414

08002d40 <_isatty_r>:
 8002d40:	b538      	push	{r3, r4, r5, lr}
 8002d42:	2300      	movs	r3, #0
 8002d44:	4d05      	ldr	r5, [pc, #20]	@ (8002d5c <_isatty_r+0x1c>)
 8002d46:	4604      	mov	r4, r0
 8002d48:	4608      	mov	r0, r1
 8002d4a:	602b      	str	r3, [r5, #0]
 8002d4c:	f7fe fd84 	bl	8001858 <_isatty>
 8002d50:	1c43      	adds	r3, r0, #1
 8002d52:	d102      	bne.n	8002d5a <_isatty_r+0x1a>
 8002d54:	682b      	ldr	r3, [r5, #0]
 8002d56:	b103      	cbz	r3, 8002d5a <_isatty_r+0x1a>
 8002d58:	6023      	str	r3, [r4, #0]
 8002d5a:	bd38      	pop	{r3, r4, r5, pc}
 8002d5c:	20000414 	.word	0x20000414

08002d60 <_sbrk_r>:
 8002d60:	b538      	push	{r3, r4, r5, lr}
 8002d62:	2300      	movs	r3, #0
 8002d64:	4d05      	ldr	r5, [pc, #20]	@ (8002d7c <_sbrk_r+0x1c>)
 8002d66:	4604      	mov	r4, r0
 8002d68:	4608      	mov	r0, r1
 8002d6a:	602b      	str	r3, [r5, #0]
 8002d6c:	f7fe fd8c 	bl	8001888 <_sbrk>
 8002d70:	1c43      	adds	r3, r0, #1
 8002d72:	d102      	bne.n	8002d7a <_sbrk_r+0x1a>
 8002d74:	682b      	ldr	r3, [r5, #0]
 8002d76:	b103      	cbz	r3, 8002d7a <_sbrk_r+0x1a>
 8002d78:	6023      	str	r3, [r4, #0]
 8002d7a:	bd38      	pop	{r3, r4, r5, pc}
 8002d7c:	20000414 	.word	0x20000414

08002d80 <memchr>:
 8002d80:	b2c9      	uxtb	r1, r1
 8002d82:	4603      	mov	r3, r0
 8002d84:	4402      	add	r2, r0
 8002d86:	b510      	push	{r4, lr}
 8002d88:	4293      	cmp	r3, r2
 8002d8a:	4618      	mov	r0, r3
 8002d8c:	d101      	bne.n	8002d92 <memchr+0x12>
 8002d8e:	2000      	movs	r0, #0
 8002d90:	e003      	b.n	8002d9a <memchr+0x1a>
 8002d92:	7804      	ldrb	r4, [r0, #0]
 8002d94:	3301      	adds	r3, #1
 8002d96:	428c      	cmp	r4, r1
 8002d98:	d1f6      	bne.n	8002d88 <memchr+0x8>
 8002d9a:	bd10      	pop	{r4, pc}

08002d9c <memcpy>:
 8002d9c:	440a      	add	r2, r1
 8002d9e:	1e43      	subs	r3, r0, #1
 8002da0:	4291      	cmp	r1, r2
 8002da2:	d100      	bne.n	8002da6 <memcpy+0xa>
 8002da4:	4770      	bx	lr
 8002da6:	b510      	push	{r4, lr}
 8002da8:	f811 4b01 	ldrb.w	r4, [r1], #1
 8002dac:	4291      	cmp	r1, r2
 8002dae:	f803 4f01 	strb.w	r4, [r3, #1]!
 8002db2:	d1f9      	bne.n	8002da8 <memcpy+0xc>
 8002db4:	bd10      	pop	{r4, pc}

08002db6 <abort>:
 8002db6:	2006      	movs	r0, #6
 8002db8:	b508      	push	{r3, lr}
 8002dba:	f000 f859 	bl	8002e70 <raise>
 8002dbe:	2001      	movs	r0, #1
 8002dc0:	f7fe fcea 	bl	8001798 <_exit>

08002dc4 <_realloc_r>:
 8002dc4:	e92d 41f0 	stmdb	sp!, {r4, r5, r6, r7, r8, lr}
 8002dc8:	4607      	mov	r7, r0
 8002dca:	4614      	mov	r4, r2
 8002dcc:	460d      	mov	r5, r1
 8002dce:	b921      	cbnz	r1, 8002dda <_realloc_r+0x16>
 8002dd0:	4611      	mov	r1, r2
 8002dd2:	e8bd 41f0 	ldmia.w	sp!, {r4, r5, r6, r7, r8, lr}
 8002dd6:	f7ff b9b1 	b.w	800213c <_malloc_r>
 8002dda:	b92a      	cbnz	r2, 8002de8 <_realloc_r+0x24>
 8002ddc:	4625      	mov	r5, r4
 8002dde:	f7ff f939 	bl	8002054 <_free_r>
 8002de2:	4628      	mov	r0, r5
 8002de4:	e8bd 81f0 	ldmia.w	sp!, {r4, r5, r6, r7, r8, pc}
 8002de8:	f000 f85e 	bl	8002ea8 <_malloc_usable_size_r>
 8002dec:	4284      	cmp	r4, r0
 8002dee:	4606      	mov	r6, r0
 8002df0:	d802      	bhi.n	8002df8 <_realloc_r+0x34>
 8002df2:	ebb4 0f50 	cmp.w	r4, r0, lsr #1
 8002df6:	d8f4      	bhi.n	8002de2 <_realloc_r+0x1e>
 8002df8:	4621      	mov	r1, r4
 8002dfa:	4638      	mov	r0, r7
 8002dfc:	f7ff f99e 	bl	800213c <_malloc_r>
 8002e00:	4680      	mov	r8, r0
 8002e02:	b908      	cbnz	r0, 8002e08 <_realloc_r+0x44>
 8002e04:	4645      	mov	r5, r8
 8002e06:	e7ec      	b.n	8002de2 <_realloc_r+0x1e>
 8002e08:	42b4      	cmp	r4, r6
 8002e0a:	4622      	mov	r2, r4
 8002e0c:	4629      	mov	r1, r5
 8002e0e:	bf28      	it	cs
 8002e10:	4632      	movcs	r2, r6
 8002e12:	f7ff ffc3 	bl	8002d9c <memcpy>
 8002e16:	4629      	mov	r1, r5
 8002e18:	4638      	mov	r0, r7
 8002e1a:	f7ff f91b 	bl	8002054 <_free_r>
 8002e1e:	e7f1      	b.n	8002e04 <_realloc_r+0x40>

08002e20 <_raise_r>:
 8002e20:	291f      	cmp	r1, #31
 8002e22:	b538      	push	{r3, r4, r5, lr}
 8002e24:	4605      	mov	r5, r0
 8002e26:	460c      	mov	r4, r1
 8002e28:	d904      	bls.n	8002e34 <_raise_r+0x14>
 8002e2a:	2316      	movs	r3, #22
 8002e2c:	6003      	str	r3, [r0, #0]
 8002e2e:	f04f 30ff 	mov.w	r0, #4294967295
 8002e32:	bd38      	pop	{r3, r4, r5, pc}
 8002e34:	6bc2      	ldr	r2, [r0, #60]	@ 0x3c
 8002e36:	b112      	cbz	r2, 8002e3e <_raise_r+0x1e>
 8002e38:	f852 3021 	ldr.w	r3, [r2, r1, lsl #2]
 8002e3c:	b94b      	cbnz	r3, 8002e52 <_raise_r+0x32>
 8002e3e:	4628      	mov	r0, r5
 8002e40:	f000 f830 	bl	8002ea4 <_getpid_r>
 8002e44:	4622      	mov	r2, r4
 8002e46:	4601      	mov	r1, r0
 8002e48:	4628      	mov	r0, r5
 8002e4a:	e8bd 4038 	ldmia.w	sp!, {r3, r4, r5, lr}
 8002e4e:	f000 b817 	b.w	8002e80 <_kill_r>
 8002e52:	2b01      	cmp	r3, #1
 8002e54:	d00a      	beq.n	8002e6c <_raise_r+0x4c>
 8002e56:	1c59      	adds	r1, r3, #1
 8002e58:	d103      	bne.n	8002e62 <_raise_r+0x42>
 8002e5a:	2316      	movs	r3, #22
 8002e5c:	6003      	str	r3, [r0, #0]
 8002e5e:	2001      	movs	r0, #1
 8002e60:	e7e7      	b.n	8002e32 <_raise_r+0x12>
 8002e62:	2100      	movs	r1, #0
 8002e64:	4620      	mov	r0, r4
 8002e66:	f842 1024 	str.w	r1, [r2, r4, lsl #2]
 8002e6a:	4798      	blx	r3
 8002e6c:	2000      	movs	r0, #0
 8002e6e:	e7e0      	b.n	8002e32 <_raise_r+0x12>

08002e70 <raise>:
 8002e70:	4b02      	ldr	r3, [pc, #8]	@ (8002e7c <raise+0xc>)
 8002e72:	4601      	mov	r1, r0
 8002e74:	6818      	ldr	r0, [r3, #0]
 8002e76:	f7ff bfd3 	b.w	8002e20 <_raise_r>
 8002e7a:	bf00      	nop
 8002e7c:	20000158 	.word	0x20000158

08002e80 <_kill_r>:
 8002e80:	b538      	push	{r3, r4, r5, lr}
 8002e82:	2300      	movs	r3, #0
 8002e84:	4d06      	ldr	r5, [pc, #24]	@ (8002ea0 <_kill_r+0x20>)
 8002e86:	4604      	mov	r4, r0
 8002e88:	4608      	mov	r0, r1
 8002e8a:	4611      	mov	r1, r2
 8002e8c:	602b      	str	r3, [r5, #0]
 8002e8e:	f7fe fc73 	bl	8001778 <_kill>
 8002e92:	1c43      	adds	r3, r0, #1
 8002e94:	d102      	bne.n	8002e9c <_kill_r+0x1c>
 8002e96:	682b      	ldr	r3, [r5, #0]
 8002e98:	b103      	cbz	r3, 8002e9c <_kill_r+0x1c>
 8002e9a:	6023      	str	r3, [r4, #0]
 8002e9c:	bd38      	pop	{r3, r4, r5, pc}
 8002e9e:	bf00      	nop
 8002ea0:	20000414 	.word	0x20000414

08002ea4 <_getpid_r>:
 8002ea4:	f7fe bc60 	b.w	8001768 <_getpid>

08002ea8 <_malloc_usable_size_r>:
 8002ea8:	f851 3c04 	ldr.w	r3, [r1, #-4]
 8002eac:	1f18      	subs	r0, r3, #4
 8002eae:	2b00      	cmp	r3, #0
 8002eb0:	bfbc      	itt	lt
 8002eb2:	580b      	ldrlt	r3, [r1, r0]
 8002eb4:	18c0      	addlt	r0, r0, r3
 8002eb6:	4770      	bx	lr

08002eb8 <_init>:
 8002eb8:	b5f8      	push	{r3, r4, r5, r6, r7, lr}
 8002eba:	bf00      	nop
 8002ebc:	bcf8      	pop	{r3, r4, r5, r6, r7}
 8002ebe:	bc08      	pop	{r3}
 8002ec0:	469e      	mov	lr, r3
 8002ec2:	4770      	bx	lr

08002ec4 <_fini>:
 8002ec4:	b5f8      	push	{r3, r4, r5, r6, r7, lr}
 8002ec6:	bf00      	nop
 8002ec8:	bcf8      	pop	{r3, r4, r5, r6, r7}
 8002eca:	bc08      	pop	{r3}
 8002ecc:	469e      	mov	lr, r3
 8002ece:	4770      	bx	lr
